

Microchip MPLAB XC8 Assembler V2.32 build 20210201212658 
                                                                                               Sat May 08 13:27:58 2021

Microchip MPLAB XC8 C Compiler v2.32 (Free license) build 20210201212658 Og1 
     1                           	processor	16F877A
     2                           	pagewidth 120
     3                           	opt	flic
     4                           	psect	idataBANK2,global,class=CODE,delta=2,noexec
     5                           	psect	idataBANK3,global,class=CODE,delta=2,noexec
     6                           	psect	strings,global,class=STRING,delta=2,noexec
     7                           	psect	cinit,global,class=CODE,merge=1,delta=2
     8                           	psect	dataBANK3,global,class=BANK3,space=1,delta=1,noexec
     9                           	psect	dataBANK2,global,class=BANK2,space=1,delta=1,noexec
    10                           	psect	inittext,global,class=CODE,delta=2
    11                           	psect	cstackBANK3,global,class=BANK3,space=1,delta=1,noexec
    12                           	psect	cstackBANK1,global,class=BANK1,space=1,delta=1,noexec
    13                           	psect	cstackCOMMON,global,class=COMMON,space=1,delta=1,noexec
    14                           	psect	cstackBANK0,global,class=BANK0,space=1,delta=1,noexec
    15                           	psect	maintext,global,class=CODE,split=1,delta=2
    16                           	psect	text1,local,class=CODE,merge=1,delta=2
    17                           	psect	text2,local,class=CODE,merge=1,delta=2
    18                           	psect	text3,local,class=CODE,merge=1,delta=2
    19                           	psect	text4,local,class=CODE,merge=1,delta=2
    20                           	psect	text5,local,class=CODE,merge=1,delta=2
    21                           	psect	text6,local,class=CODE,merge=1,delta=2
    22                           	psect	text7,local,class=CODE,merge=1,delta=2
    23                           	psect	text8,local,class=CODE,merge=1,delta=2
    24                           	psect	text9,local,class=CODE,merge=1,delta=2,group=1
    25                           	psect	config,global,abs,ovrld,class=CONFIG,space=4,delta=2,noexec
    26                           	dabs	1,0x7E,2
    27  0000                     
    28                           ; Version 2.20
    29                           ; Generated 12/02/2020 GMT
    30                           ; 
    31                           ; Copyright © 2020, Microchip Technology Inc. and its subsidiaries ("Microchip")
    32                           ; All rights reserved.
    33                           ; 
    34                           ; This software is developed by Microchip Technology Inc. and its subsidiaries ("Microch
      +                          ip").
    35                           ; 
    36                           ; Redistribution and use in source and binary forms, with or without modification, are
    37                           ; permitted provided that the following conditions are met:
    38                           ; 
    39                           ;     1. Redistributions of source code must retain the above copyright notice, this lis
      +                          t of
    40                           ;        conditions and the following disclaimer.
    41                           ; 
    42                           ;     2. Redistributions in binary form must reproduce the above copyright notice, this 
      +                          list
    43                           ;        of conditions and the following disclaimer in the documentation and/or other
    44                           ;        materials provided with the distribution.
    45                           ; 
    46                           ;     3. Microchip's name may not be used to endorse or promote products derived from th
      +                          is
    47                           ;        software without specific prior written permission.
    48                           ; 
    49                           ; THIS SOFTWARE IS PROVIDED BY MICROCHIP "AS IS" AND ANY EXPRESS OR IMPLIED WARRANTIES,
    50                           ; INCLUDING, BUT NOT LIMITED TO, THE IMPLIED WARRANTIES OF MERCHANTABILITY AND FITNESS F
      +                          OR
    51                           ; PURPOSE ARE DISCLAIMED.  IN NO EVENT SHALL MICROCHIP BE LIABLE FOR ANY DIRECT, INDIREC
      +                          T,
    52                           ; INCIDENTAL, SPECIAL, EXEMPLARY, OR CONSEQUENTIAL DAMAGES (INCLUDING BUT NOT LIMITED TO
    53                           ; PROCUREMENT OF SUBSTITUTE GOODS OR SERVICES; LOSS OF USE, DATA OR PROFITS; OR BUSINESS
    54                           ; INTERRUPTION) HOWSOEVER CAUSED AND ON ANY THEORY OF LIABILITY, WHETHER IN CONTRACT, ST
      +                          RICT
    55                           ; LIABILITY, OR TORT (INCLUDING NEGLIGENCE OR OTHERWISE) ARISING IN ANY WAY OUT OF THE U
      +                          SE OF
    56                           ; THIS SOFTWARE, EVEN IF ADVISED OF THE POSSIBILITY OF SUCH DAMAGE.
    57                           ; 
    58                           ; 
    59                           ; Code-generator required, PIC16F877A Definitions
    60                           ; 
    61                           ; SFR Addresses
    62  0000                     	;# 
    63  0001                     	;# 
    64  0002                     	;# 
    65  0003                     	;# 
    66  0004                     	;# 
    67  0005                     	;# 
    68  0006                     	;# 
    69  0007                     	;# 
    70  0008                     	;# 
    71  0009                     	;# 
    72  000A                     	;# 
    73  000B                     	;# 
    74  000C                     	;# 
    75  000D                     	;# 
    76  000E                     	;# 
    77  000E                     	;# 
    78  000F                     	;# 
    79  0010                     	;# 
    80  0011                     	;# 
    81  0012                     	;# 
    82  0013                     	;# 
    83  0014                     	;# 
    84  0015                     	;# 
    85  0015                     	;# 
    86  0016                     	;# 
    87  0017                     	;# 
    88  0018                     	;# 
    89  0019                     	;# 
    90  001A                     	;# 
    91  001B                     	;# 
    92  001B                     	;# 
    93  001C                     	;# 
    94  001D                     	;# 
    95  001E                     	;# 
    96  001F                     	;# 
    97  0081                     	;# 
    98  0085                     	;# 
    99  0086                     	;# 
   100  0087                     	;# 
   101  0088                     	;# 
   102  0089                     	;# 
   103  008C                     	;# 
   104  008D                     	;# 
   105  008E                     	;# 
   106  0091                     	;# 
   107  0092                     	;# 
   108  0093                     	;# 
   109  0094                     	;# 
   110  0098                     	;# 
   111  0099                     	;# 
   112  009C                     	;# 
   113  009D                     	;# 
   114  009E                     	;# 
   115  009F                     	;# 
   116  010C                     	;# 
   117  010D                     	;# 
   118  010E                     	;# 
   119  010F                     	;# 
   120  018C                     	;# 
   121  018D                     	;# 
   122  0000                     	;# 
   123  0001                     	;# 
   124  0002                     	;# 
   125  0003                     	;# 
   126  0004                     	;# 
   127  0005                     	;# 
   128  0006                     	;# 
   129  0007                     	;# 
   130  0008                     	;# 
   131  0009                     	;# 
   132  000A                     	;# 
   133  000B                     	;# 
   134  000C                     	;# 
   135  000D                     	;# 
   136  000E                     	;# 
   137  000E                     	;# 
   138  000F                     	;# 
   139  0010                     	;# 
   140  0011                     	;# 
   141  0012                     	;# 
   142  0013                     	;# 
   143  0014                     	;# 
   144  0015                     	;# 
   145  0015                     	;# 
   146  0016                     	;# 
   147  0017                     	;# 
   148  0018                     	;# 
   149  0019                     	;# 
   150  001A                     	;# 
   151  001B                     	;# 
   152  001B                     	;# 
   153  001C                     	;# 
   154  001D                     	;# 
   155  001E                     	;# 
   156  001F                     	;# 
   157  0081                     	;# 
   158  0085                     	;# 
   159  0086                     	;# 
   160  0087                     	;# 
   161  0088                     	;# 
   162  0089                     	;# 
   163  008C                     	;# 
   164  008D                     	;# 
   165  008E                     	;# 
   166  0091                     	;# 
   167  0092                     	;# 
   168  0093                     	;# 
   169  0094                     	;# 
   170  0098                     	;# 
   171  0099                     	;# 
   172  009C                     	;# 
   173  009D                     	;# 
   174  009E                     	;# 
   175  009F                     	;# 
   176  010C                     	;# 
   177  010D                     	;# 
   178  010E                     	;# 
   179  010F                     	;# 
   180  018C                     	;# 
   181  018D                     	;# 
   182                           
   183                           	psect	idataBANK2
   184  0ECD                     __pidataBANK2:
   185                           
   186                           ;initializer for main@F1018
   187  0ECD  3464               	retlw	100
   188  0ECE  3465               	retlw	101
   189  0ECF  3465               	retlw	101
   190  0ED0  3472               	retlw	114
   191  0ED1  3461               	retlw	97
   192  0ED2  346A               	retlw	106
   193  0ED3  3400               	retlw	0
   194  0ED4  3400               	retlw	0
   195  0ED5  3400               	retlw	0
   196  0ED6  3400               	retlw	0
   197  0ED7  346E               	retlw	110
   198  0ED8  3461               	retlw	97
   199  0ED9  3476               	retlw	118
   200  0EDA  3465               	retlw	101
   201  0EDB  3465               	retlw	101
   202  0EDC  346E               	retlw	110
   203  0EDD  3400               	retlw	0
   204  0EDE  3400               	retlw	0
   205  0EDF  3400               	retlw	0
   206  0EE0  3400               	retlw	0
   207  0EE1  3473               	retlw	115
   208  0EE2  3468               	retlw	104
   209  0EE3  3472               	retlw	114
   210  0EE4  3465               	retlw	101
   211  0EE5  3479               	retlw	121
   212  0EE6  3461               	retlw	97
   213  0EE7  3473               	retlw	115
   214  0EE8  3400               	retlw	0
   215  0EE9  3400               	retlw	0
   216  0EEA  3400               	retlw	0
   217  0EEB  3476               	retlw	118
   218  0EEC  3469               	retlw	105
   219  0EED  3473               	retlw	115
   220  0EEE  3468               	retlw	104
   221  0EEF  3477               	retlw	119
   222  0EF0  3461               	retlw	97
   223  0EF1  3473               	retlw	115
   224  0EF2  3400               	retlw	0
   225  0EF3  3400               	retlw	0
   226  0EF4  3400               	retlw	0
   227  0EF5  3479               	retlw	121
   228  0EF6  3461               	retlw	97
   229  0EF7  3473               	retlw	115
   230  0EF8  3468               	retlw	104
   231  0EF9  3477               	retlw	119
   232  0EFA  3461               	retlw	97
   233  0EFB  346E               	retlw	110
   234  0EFC  3474               	retlw	116
   235  0EFD  3468               	retlw	104
   236  0EFE  3400               	retlw	0
   237  0EFF  3473               	retlw	115
   238  0F00  3461               	retlw	97
   239  0F01  346D               	retlw	109
   240  0F02  3400               	retlw	0
   241  0F03  3400               	retlw	0
   242  0F04  3400               	retlw	0
   243  0F05  3400               	retlw	0
   244  0F06  3400               	retlw	0
   245  0F07  3400               	retlw	0
   246  0F08  3400               	retlw	0
   247  0F09  3476               	retlw	118
   248  0F0A  3465               	retlw	101
   249  0F0B  346E               	retlw	110
   250  0F0C  346B               	retlw	107
   251  0F0D  3461               	retlw	97
   252  0F0E  3474               	retlw	116
   253  0F0F  3400               	retlw	0
   254  0F10  3400               	retlw	0
   255  0F11  3400               	retlw	0
   256  0F12  3400               	retlw	0
   257  0F13  3474               	retlw	116
   258  0F14  3465               	retlw	101
   259  0F15  346A               	retlw	106
   260  0F16  3461               	retlw	97
   261  0F17  3400               	retlw	0
   262  0F18  3400               	retlw	0
   263  0F19  3400               	retlw	0
   264  0F1A  3400               	retlw	0
   265  0F1B  3400               	retlw	0
   266  0F1C  3400               	retlw	0
   267                           
   268                           	psect	idataBANK3
   269  00FB                     __pidataBANK3:
   270                           
   271                           ;initializer for main@F1022
   272  00FB  3420               	retlw	32
   273  00FC  3431               	retlw	49
   274  00FD  3432               	retlw	50
   275  00FE  3433               	retlw	51
   276  00FF  3434               	retlw	52
   277  0100  3420               	retlw	32
   278  0101  3435               	retlw	53
   279  0102  3436               	retlw	54
   280  0103  3437               	retlw	55
   281  0104  3438               	retlw	56
   282  0105  3420               	retlw	32
   283  0106  3431               	retlw	49
   284  0107  3430               	retlw	48
   285  0108  3432               	retlw	50
   286  0109  3438               	retlw	56
   287  010A  3420               	retlw	32
   288  010B  3437               	retlw	55
   289  010C  3439               	retlw	57
   290  010D  3432               	retlw	50
   291  010E  3433               	retlw	51
   292  010F  3420               	retlw	32
   293  0110  3435               	retlw	53
   294  0111  3432               	retlw	50
   295  0112  3431               	retlw	49
   296  0113  3430               	retlw	48
   297  0114  3420               	retlw	32
   298  0115  3432               	retlw	50
   299  0116  3439               	retlw	57
   300  0117  3436               	retlw	54
   301  0118  3434               	retlw	52
   302  0119  3420               	retlw	32
   303  011A  3435               	retlw	53
   304  011B  3437               	retlw	55
   305  011C  3439               	retlw	57
   306  011D  3431               	retlw	49
   307  011E  3420               	retlw	32
   308  011F  3430               	retlw	48
   309  0120  3430               	retlw	48
   310  0121  3432               	retlw	50
   311  0122  3434               	retlw	52
   312                           
   313                           ;initializer for main@F1026
   314  0123  3430               	retlw	48
   315  0124  3430               	retlw	48
   316  0125  3430               	retlw	48
   317  0126  3430               	retlw	48
   318  0127  3430               	retlw	48
   319  0128  3430               	retlw	48
   320  0129  3430               	retlw	48
   321  012A  3430               	retlw	48
   322                           
   323                           ;initializer for main@F1031
   324  012B  3420               	retlw	32
   325  012C  3420               	retlw	32
   326  012D  3420               	retlw	32
   327  012E  3420               	retlw	32
   328  012F  3420               	retlw	32
   329  0130  3400               	retlw	0
   330  0009                     _PORTEbits	set	9
   331  0008                     _PORTDbits	set	8
   332  0007                     _PORTC	set	7
   333  0037                     _RB7	set	55
   334  0036                     _RB6	set	54
   335  0035                     _RB5	set	53
   336  0034                     _RB4	set	52
   337  0030                     _RB0	set	48
   338  0031                     _RB1	set	49
   339  0032                     _RB2	set	50
   340  0043                     _RD3	set	67
   341  0046                     _RD6	set	70
   342  0029                     _RA1	set	41
   343  0045                     _RD5	set	69
   344  002B                     _RA3	set	43
   345  002D                     _RA5	set	45
   346  002A                     _RA2	set	42
   347  0028                     _RA0	set	40
   348  0044                     _RD4	set	68
   349  0089                     _TRISE	set	137
   350  0085                     _TRISA	set	133
   351  0086                     _TRISB	set	134
   352  0088                     _TRISD	set	136
   353  0087                     _TRISC	set	135
   354                           
   355                           	psect	strings
   356  0003                     __pstrings:
   357  0003                     stringtab:
   358  0003                     __stringtab:
   359                           
   360                           ;	String table - string pointers are 1 byte each
   361  0003  1BFF               	btfsc	btemp+1,7
   362  0004  280D               	ljmp	stringcode
   363  0005  1383               	bcf	3,7
   364  0006  187F               	btfsc	btemp+1,0
   365  0007  1783               	bsf	3,7
   366  0008  0800               	movf	0,w
   367  0009  0A84               	incf	4,f
   368  000A  1903               	skipnz
   369  000B  0AFF               	incf	btemp+1,f
   370  000C  0008               	return
   371  000D                     stringcode:
   372  000D                     stringdir:
   373  000D  3000               	movlw	high stringdir
   374  000E  008A               	movwf	10
   375  000F  0804               	movf	4,w
   376  0010  0A84               	incf	4,f
   377  0011  0782               	addwf	2,f
   378  0012                     __stringbase:
   379  0012  3400               	retlw	0
   380  0013                     __end_of__stringtab:
   381  0013                     STR_1:
   382  0013  3420               	retlw	32	;' '
   383  0014  3450               	retlw	80	;'P'
   384  0015  344C               	retlw	76	;'L'
   385  0016  3445               	retlw	69	;'E'
   386  0017  3441               	retlw	65	;'A'
   387  0018  3453               	retlw	83	;'S'
   388  0019  3445               	retlw	69	;'E'
   389  001A  3420               	retlw	32	;' '
   390  001B  3457               	retlw	87	;'W'
   391  001C  3441               	retlw	65	;'A'
   392  001D  3449               	retlw	73	;'I'
   393  001E  3454               	retlw	84	;'T'
   394  001F  342E               	retlw	46	;'.'
   395  0020  342E               	retlw	46	;'.'
   396  0021  342E               	retlw	46	;'.'
   397  0022  3400               	retlw	0
   398  0023                     STR_3:
   399  0023  3420               	retlw	32	;' '
   400  0024  3477               	retlw	119	;'w'
   401  0025  3461               	retlw	97	;'a'
   402  0026  346E               	retlw	110	;'n'
   403  0027  3474               	retlw	116	;'t'
   404  0028  3420               	retlw	32	;' '
   405  0029  3474               	retlw	116	;'t'
   406  002A  346F               	retlw	111	;'o'
   407  002B  3420               	retlw	32	;' '
   408  002C  3473               	retlw	115	;'s'
   409  002D  3461               	retlw	97	;'a'
   410  002E  3476               	retlw	118	;'v'
   411  002F  3465               	retlw	101	;'e'
   412  0030  3420               	retlw	32	;' '
   413  0031  343F               	retlw	63	;'?'
   414  0032  3400               	retlw	0
   415  0033                     STR_21:
   416  0033  3420               	retlw	32	;' '
   417  0034  3431               	retlw	49	;'1'
   418  0035  343A               	retlw	58	;':'
   419  0036  3443               	retlw	67	;'C'
   420  0037  344F               	retlw	79	;'O'
   421  0038  3446               	retlw	70	;'F'
   422  0039  3446               	retlw	70	;'F'
   423  003A  3445               	retlw	69	;'E'
   424  003B  3445               	retlw	69	;'E'
   425  003C  3420               	retlw	32	;' '
   426  003D  3432               	retlw	50	;'2'
   427  003E  343A               	retlw	58	;':'
   428  003F  3454               	retlw	84	;'T'
   429  0040  3445               	retlw	69	;'E'
   430  0041  3441               	retlw	65	;'A'
   431  0042  3400               	retlw	0
   432  0043                     STR_2:
   433  0043  3446               	retlw	70	;'F'
   434  0044  344F               	retlw	79	;'O'
   435  0045  3452               	retlw	82	;'R'
   436  0046  3420               	retlw	32	;' '
   437  0047  3459               	retlw	89	;'Y'
   438  0048  344F               	retlw	79	;'O'
   439  0049  3455               	retlw	85	;'U'
   440  004A  3452               	retlw	82	;'R'
   441  004B  3420               	retlw	32	;' '
   442  004C  3443               	retlw	67	;'C'
   443  004D  344F               	retlw	79	;'O'
   444  004E  3446               	retlw	70	;'F'
   445  004F  3446               	retlw	70	;'F'
   446  0050  3445               	retlw	69	;'E'
   447  0051  3445               	retlw	69	;'E'
   448  0052  3400               	retlw	0
   449  0053                     STR_25:
   450  0053  3420               	retlw	32	;' '
   451  0054  3450               	retlw	80	;'P'
   452  0055  3452               	retlw	82	;'R'
   453  0056  3445               	retlw	69	;'E'
   454  0057  3450               	retlw	80	;'P'
   455  0058  3441               	retlw	65	;'A'
   456  0059  3452               	retlw	82	;'R'
   457  005A  3449               	retlw	73	;'I'
   458  005B  344E               	retlw	78	;'N'
   459  005C  3447               	retlw	71	;'G'
   460  005D  3420               	retlw	32	;' '
   461  005E  3459               	retlw	89	;'Y'
   462  005F  344F               	retlw	79	;'O'
   463  0060  3455               	retlw	85	;'U'
   464  0061  3452               	retlw	82	;'R'
   465  0062  3400               	retlw	0
   466  0063                     STR_12:
   467  0063  3446               	retlw	70	;'F'
   468  0064  344F               	retlw	79	;'O'
   469  0065  3452               	retlw	82	;'R'
   470  0066  3420               	retlw	32	;' '
   471  0067  3459               	retlw	89	;'Y'
   472  0068  344F               	retlw	79	;'O'
   473  0069  3455               	retlw	85	;'U'
   474  006A  3452               	retlw	82	;'R'
   475  006B  3420               	retlw	32	;' '
   476  006C  344D               	retlw	77	;'M'
   477  006D  3449               	retlw	73	;'I'
   478  006E  344C               	retlw	76	;'L'
   479  006F  344B               	retlw	75	;'K'
   480  0070  3400               	retlw	0
   481  0071                     STR_26:
   482  0071  3452               	retlw	82	;'R'
   483  0072  3445               	retlw	69	;'E'
   484  0073  3447               	retlw	71	;'G'
   485  0074  3455               	retlw	85	;'U'
   486  0075  344C               	retlw	76	;'L'
   487  0076  3441               	retlw	65	;'A'
   488  0077  3452               	retlw	82	;'R'
   489  0078  3420               	retlw	32	;' '
   490  0079  344F               	retlw	79	;'O'
   491  007A  3452               	retlw	82	;'R'
   492  007B  3444               	retlw	68	;'D'
   493  007C  3445               	retlw	69	;'E'
   494  007D  3452               	retlw	82	;'R'
   495  007E  3400               	retlw	0
   496  007F                     STR_29:
   497  007F  3420               	retlw	32	;' '
   498  0080  3454               	retlw	84	;'T'
   499  0081  3448               	retlw	72	;'H'
   500  0082  3441               	retlw	65	;'A'
   501  0083  344E               	retlw	78	;'N'
   502  0084  344B               	retlw	75	;'K'
   503  0085  3420               	retlw	32	;' '
   504  0086  3459               	retlw	89	;'Y'
   505  0087  344F               	retlw	79	;'O'
   506  0088  3455               	retlw	85	;'U'
   507  0089  3421               	retlw	33	;'!'
   508  008A  3421               	retlw	33	;'!'
   509  008B  3400               	retlw	0
   510  008C                     STR_4:
   511  008C  3431               	retlw	49	;'1'
   512  008D  343A               	retlw	58	;':'
   513  008E  3459               	retlw	89	;'Y'
   514  008F  3445               	retlw	69	;'E'
   515  0090  3453               	retlw	83	;'S'
   516  0091  3420               	retlw	32	;' '
   517  0092  3432               	retlw	50	;'2'
   518  0093  343A               	retlw	58	;':'
   519  0094  344E               	retlw	78	;'N'
   520  0095  344F               	retlw	79	;'O'
   521  0096  3420               	retlw	32	;' '
   522  0097  343A               	retlw	58	;':'
   523  0098  3400               	retlw	0
   524  0099                     STR_7:
   525  0099  3446               	retlw	70	;'F'
   526  009A  344F               	retlw	79	;'O'
   527  009B  3452               	retlw	82	;'R'
   528  009C  3420               	retlw	32	;' '
   529  009D  3459               	retlw	89	;'Y'
   530  009E  344F               	retlw	79	;'O'
   531  009F  3455               	retlw	85	;'U'
   532  00A0  3452               	retlw	82	;'R'
   533  00A1  3420               	retlw	32	;' '
   534  00A2  3454               	retlw	84	;'T'
   535  00A3  3445               	retlw	69	;'E'
   536  00A4  3441               	retlw	65	;'A'
   537  00A5  3400               	retlw	0
   538  00A6                     STR_23:
   539  00A6  3420               	retlw	32	;' '
   540  00A7  3431               	retlw	49	;'1'
   541  00A8  343A               	retlw	58	;':'
   542  00A9  3472               	retlw	114	;'r'
   543  00AA  3465               	retlw	101	;'e'
   544  00AB  3467               	retlw	103	;'g'
   545  00AC  3475               	retlw	117	;'u'
   546  00AD  346C               	retlw	108	;'l'
   547  00AE  3461               	retlw	97	;'a'
   548  00AF  3472               	retlw	114	;'r'
   549  00B0  3420               	retlw	32	;' '
   550  00B1  3400               	retlw	0
   551  00B2                     STR_19:
   552  00B2  3420               	retlw	32	;' '
   553  00B3  3457               	retlw	87	;'W'
   554  00B4  3452               	retlw	82	;'R'
   555  00B5  344F               	retlw	79	;'O'
   556  00B6  344E               	retlw	78	;'N'
   557  00B7  3447               	retlw	71	;'G'
   558  00B8  3420               	retlw	32	;' '
   559  00B9  3449               	retlw	73	;'I'
   560  00BA  3444               	retlw	68	;'D'
   561  00BB  3421               	retlw	33	;'!'
   562  00BC  3421               	retlw	33	;'!'
   563  00BD  3400               	retlw	0
   564  00BE                     STR_17:
   565  00BE  3420               	retlw	32	;' '
   566  00BF  3445               	retlw	69	;'E'
   567  00C0  344E               	retlw	78	;'N'
   568  00C1  3454               	retlw	84	;'T'
   569  00C2  3445               	retlw	69	;'E'
   570  00C3  3452               	retlw	82	;'R'
   571  00C4  3420               	retlw	32	;' '
   572  00C5  3449               	retlw	73	;'I'
   573  00C6  3444               	retlw	68	;'D'
   574  00C7  3420               	retlw	32	;' '
   575  00C8  343A               	retlw	58	;':'
   576  00C9  3400               	retlw	0
   577  00CA                     STR_24:
   578  00CA  3420               	retlw	32	;' '
   579  00CB  3432               	retlw	50	;'2'
   580  00CC  342E               	retlw	46	;'.'
   581  00CD  346E               	retlw	110	;'n'
   582  00CE  3465               	retlw	101	;'e'
   583  00CF  3477               	retlw	119	;'w'
   584  00D0  3420               	retlw	32	;' '
   585  00D1  343A               	retlw	58	;':'
   586  00D2  3420               	retlw	32	;' '
   587  00D3  3400               	retlw	0
   588  00D4                     STR_22:
   589  00D4  3420               	retlw	32	;' '
   590  00D5  3433               	retlw	51	;'3'
   591  00D6  343A               	retlw	58	;':'
   592  00D7  344D               	retlw	77	;'M'
   593  00D8  3449               	retlw	73	;'I'
   594  00D9  344C               	retlw	76	;'L'
   595  00DA  344B               	retlw	75	;'K'
   596  00DB  3420               	retlw	32	;' '
   597  00DC  343A               	retlw	58	;':'
   598  00DD  3400               	retlw	0
   599  00DE                     STR_16:
   600  00DE  3420               	retlw	32	;' '
   601  00DF  3457               	retlw	87	;'W'
   602  00E0  3445               	retlw	69	;'E'
   603  00E1  344C               	retlw	76	;'L'
   604  00E2  3443               	retlw	67	;'C'
   605  00E3  344F               	retlw	79	;'O'
   606  00E4  344D               	retlw	77	;'M'
   607  00E5  3445               	retlw	69	;'E'
   608  00E6  3400               	retlw	0
   609  00E7                     STR_18:
   610  00E7  3420               	retlw	32	;' '
   611  00E8  3448               	retlw	72	;'H'
   612  00E9  3449               	retlw	73	;'I'
   613  00EA  3420               	retlw	32	;' '
   614  00EB  3400               	retlw	0
   615  00EC                     STR_20:
   616  00EC  3430               	retlw	48	;'0'
   617  00ED  3400               	retlw	0
   618  00EE                     STR_5:
   619  00EE  3431               	retlw	49	;'1'
   620  00EF  3400               	retlw	0
   621  0013                     
   622                           	psect	cinit
   623  07E1                     start_initialization:	
   624                           ; #config settings
   625                           
   626  07E1                     __initialization:
   627                           
   628                           ; Initialize objects allocated to BANK3
   629  07E1  1783               	bsf	3,7	;select IRP bank2
   630  07E2  30C6               	movlw	low (__pdataBANK3+54)
   631  07E3  00FD               	movwf	btemp+-1
   632  07E4  3000               	movlw	high __pidataBANK3
   633  07E5  00FE               	movwf	btemp
   634  07E6  30FB               	movlw	low __pidataBANK3
   635  07E7  00FF               	movwf	btemp+1
   636  07E8  3090               	movlw	low __pdataBANK3
   637  07E9  0084               	movwf	4
   638  07EA  120A  158A  2614  120A  118A  	fcall	init_ram0
   639                           
   640                           ; Initialize objects allocated to BANK2
   641  07EF  3060               	movlw	low (__pdataBANK2+80)
   642  07F0  00FD               	movwf	btemp+-1
   643  07F1  300E               	movlw	high __pidataBANK2
   644  07F2  00FE               	movwf	btemp
   645  07F3  30CD               	movlw	low __pidataBANK2
   646  07F4  00FF               	movwf	btemp+1
   647  07F5  3010               	movlw	low __pdataBANK2
   648  07F6  0084               	movwf	4
   649  07F7  120A  158A  2614  120A  118A  	fcall	init_ram0
   650  07FC                     end_of_initialization:	
   651                           ;End of C runtime variable initialization code
   652                           
   653  07FC                     __end_of__initialization:
   654  07FC  0183               	clrf	3
   655  07FD  120A  118A  2CDA   	ljmp	_main	;jump to C main() function
   656                           
   657                           	psect	dataBANK3
   658  0190                     __pdataBANK3:
   659  0190                     main@F1022:
   660  0190                     	ds	40
   661  01B8                     main@F1026:
   662  01B8                     	ds	8
   663  01C0                     main@F1031:
   664  01C0                     	ds	6
   665                           
   666                           	psect	dataBANK2
   667  0110                     __pdataBANK2:
   668  0110                     main@F1018:
   669  0110                     	ds	80
   670                           
   671                           	psect	inittext
   672  0E10                     init_fetch0:	
   673                           ;	Called with low address in FSR and high address in W
   674                           
   675  0E10  087E               	movf	btemp,w
   676  0E11  008A               	movwf	10
   677  0E12  087F               	movf	btemp+1,w
   678  0E13  0082               	movwf	2
   679  0E14                     init_ram0:	
   680                           ;Called with:
   681                           ;	high address of idata address in btemp 
   682                           ;	low address of idata address in btemp+1 
   683                           ;	low address of data in FSR
   684                           ;	high address + 1 of data in btemp-1
   685                           
   686  0E14  120A  158A  2610  120A  158A  	fcall	init_fetch0
   687  0E19  0080               	movwf	0
   688  0E1A  0A84               	incf	4,f
   689  0E1B  0804               	movf	4,w
   690  0E1C  067D               	xorwf	btemp+-1,w
   691  0E1D  1903               	btfsc	3,2
   692  0E1E  3400               	retlw	0
   693  0E1F  0AFF               	incf	btemp+1,f
   694  0E20  1903               	btfsc	3,2
   695  0E21  0AFE               	incf	btemp,f
   696  0E22  2E14               	goto	init_ram0
   697                           
   698                           	psect	cstackBANK3
   699  01C6                     __pcstackBANK3:
   700  01C6                     main@j:
   701                           
   702                           ; 2 bytes @ 0x0
   703  01C6                     	ds	2
   704  01C8                     main@var:
   705                           
   706                           ; 2 bytes @ 0x2
   707  01C8                     	ds	2
   708                           
   709                           	psect	cstackBANK1
   710  00A0                     __pcstackBANK1:
   711  00A0                     main@arr:
   712                           
   713                           ; 80 bytes @ 0x0
   714  00A0                     	ds	80
   715                           
   716                           	psect	cstackCOMMON
   717  0070                     __pcstackCOMMON:
   718  0070                     ?_store:
   719  0070                     ??_store:	
   720                           ; 1 bytes @ 0x0
   721                           
   722  0070                     ?_instruct:	
   723                           ; 1 bytes @ 0x0
   724                           
   725  0070                     ??_instruct:	
   726                           ; 1 bytes @ 0x0
   727                           
   728  0070                     ?_init:	
   729                           ; 1 bytes @ 0x0
   730                           
   731  0070                     ?_making:	
   732                           ; 1 bytes @ 0x0
   733                           
   734  0070                     ??_making:	
   735                           ; 1 bytes @ 0x0
   736                           
   737  0070                     ?_keypad:	
   738                           ; 1 bytes @ 0x0
   739                           
   740  0070                     ?_middle:	
   741                           ; 1 bytes @ 0x0
   742                           
   743  0070                     ?_main:	
   744                           ; 1 bytes @ 0x0
   745                           
   746  0070                     ?___bmul:	
   747                           ; 1 bytes @ 0x0
   748                           
   749  0070                     store@data:	
   750                           ; 1 bytes @ 0x0
   751                           
   752  0070                     instruct@inst:	
   753                           ; 1 bytes @ 0x0
   754                           
   755  0070                     ___bmul@multiplicand:	
   756                           ; 1 bytes @ 0x0
   757                           
   758                           
   759                           ; 1 bytes @ 0x0
   760  0070                     	ds	1
   761  0071                     ??_init:
   762  0071                     ??_keypad:	
   763                           ; 1 bytes @ 0x1
   764                           
   765  0071                     ??___bmul:	
   766                           ; 1 bytes @ 0x1
   767                           
   768                           
   769                           ; 1 bytes @ 0x1
   770  0071                     	ds	1
   771  0072                     ___bmul@product:
   772                           
   773                           ; 1 bytes @ 0x2
   774  0072                     	ds	1
   775  0073                     making@t:
   776  0073                     ___bmul@multiplier:	
   777                           ; 1 bytes @ 0x3
   778                           
   779                           
   780                           ; 1 bytes @ 0x3
   781  0073                     	ds	1
   782  0074                     ?_strin:
   783  0074                     ?_compare:	
   784                           ; 1 bytes @ 0x4
   785                           
   786  0074                     strin@stri:	
   787                           ; 2 bytes @ 0x4
   788                           
   789  0074                     making@i:	
   790                           ; 2 bytes @ 0x4
   791                           
   792  0074                     compare@str2:	
   793                           ; 2 bytes @ 0x4
   794                           
   795                           
   796                           ; 2 bytes @ 0x4
   797  0074                     	ds	2
   798  0076                     strin@n:
   799  0076                     making@j:	
   800                           ; 2 bytes @ 0x6
   801                           
   802  0076                     compare@len:	
   803                           ; 2 bytes @ 0x6
   804                           
   805                           
   806                           ; 2 bytes @ 0x6
   807  0076                     	ds	2
   808  0078                     ??_strin:
   809  0078                     ??_compare:	
   810                           ; 1 bytes @ 0x8
   811                           
   812                           
   813                           ; 1 bytes @ 0x8
   814  0078                     	ds	3
   815  007B                     strin@i:
   816                           
   817                           ; 2 bytes @ 0xB
   818  007B                     	ds	2
   819  007D                     ??_middle:
   820                           
   821                           ; 1 bytes @ 0xD
   822  007D                     	ds	1
   823                           
   824                           	psect	cstackBANK0
   825  0020                     __pcstackBANK0:
   826  0020                     compare@str1:
   827                           
   828                           ; 1 bytes @ 0x0
   829  0020                     	ds	1
   830  0021                     compare@i:
   831                           
   832                           ; 2 bytes @ 0x1
   833  0021                     	ds	2
   834  0023                     middle@d:
   835                           
   836                           ; 2 bytes @ 0x3
   837  0023                     	ds	2
   838  0025                     middle@d_129:
   839                           
   840                           ; 2 bytes @ 0x5
   841  0025                     	ds	2
   842  0027                     middle@d_135:
   843                           
   844                           ; 2 bytes @ 0x7
   845  0027                     	ds	2
   846  0029                     middle@str:
   847                           
   848                           ; 1 bytes @ 0x9
   849  0029                     	ds	1
   850  002A                     middle@x:
   851                           
   852                           ; 1 bytes @ 0xA
   853  002A                     	ds	1
   854  002B                     middle@k:
   855                           
   856                           ; 1 bytes @ 0xB
   857  002B                     	ds	1
   858  002C                     ??_main:
   859                           
   860                           ; 1 bytes @ 0xC
   861  002C                     	ds	4
   862  0030                     main@arr2:
   863                           
   864                           ; 40 bytes @ 0x10
   865  0030                     	ds	40
   866  0058                     main@pass:
   867                           
   868                           ; 6 bytes @ 0x38
   869  0058                     	ds	6
   870  005E                     main@arr3:
   871                           
   872                           ; 8 bytes @ 0x3E
   873  005E                     	ds	8
   874  0066                     main@value:
   875                           
   876                           ; 2 bytes @ 0x46
   877  0066                     	ds	2
   878  0068                     main@f:
   879                           
   880                           ; 2 bytes @ 0x48
   881  0068                     	ds	2
   882  006A                     main@flag:
   883                           
   884                           ; 2 bytes @ 0x4A
   885  006A                     	ds	2
   886  006C                     main@i:
   887                           
   888                           ; 2 bytes @ 0x4C
   889  006C                     	ds	2
   890  006E                     main@k:
   891                           
   892                           ; 1 bytes @ 0x4E
   893  006E                     	ds	1
   894                           
   895                           	psect	maintext
   896  04DA                     __pmaintext:	
   897 ;;
   898 ;;Main: autosize = 0, tempsize = 4, incstack = 0, save=0
   899 ;;
   900 ;; *************** function _main *****************
   901 ;; Defined at:
   902 ;;		line 351 in file "coffeemaker.c"
   903 ;; Parameters:    Size  Location     Type
   904 ;;		None
   905 ;; Auto vars:     Size  Location     Type
   906 ;;  value           2   70[BANK0 ] int 
   907 ;;  f               2   72[BANK0 ] int 
   908 ;;  j               2    0[BANK3 ] int 
   909 ;;  pass            6   56[BANK0 ] unsigned char [6]
   910 ;;  var             2    2[BANK3 ] int 
   911 ;;  i               2   76[BANK0 ] int 
   912 ;;  flag            2   74[BANK0 ] int 
   913 ;;  count           2    0        int 
   914 ;;  k               1   78[BANK0 ] unsigned char 
   915 ;;  x               1    0        unsigned char [1]
   916 ;;  arr            80    0[BANK1 ] unsigned char [10][8]
   917 ;;  arr2           40   16[BANK0 ] unsigned char [5][8]
   918 ;;  arr3            8   62[BANK0 ] unsigned char [1][8]
   919 ;; Return value:  Size  Location     Type
   920 ;;                  1    wreg      void 
   921 ;; Registers used:
   922 ;;		wreg, fsr0l, fsr0h, status,2, status,0, btemp+1, pclath, cstack
   923 ;; Tracked objects:
   924 ;;		On entry : B00/0
   925 ;;		On exit  : 0/0
   926 ;;		Unchanged: 0/0
   927 ;; Data sizes:     COMMON   BANK0   BANK1   BANK3   BANK2
   928 ;;      Params:         0       0       0       0       0
   929 ;;      Locals:         0      63      80       4       0
   930 ;;      Temps:          0       4       0       0       0
   931 ;;      Totals:         0      67      80       4       0
   932 ;;Total ram usage:      151 bytes
   933 ;; Hardware stack levels required when called: 3
   934 ;; This function calls:
   935 ;;		___bmul
   936 ;;		_compare
   937 ;;		_init
   938 ;;		_instruct
   939 ;;		_keypad
   940 ;;		_making
   941 ;;		_middle
   942 ;;		_strin
   943 ;; This function is called by:
   944 ;;		Startup code after reset
   945 ;; This function uses a non-reentrant model
   946 ;;
   947                           
   948                           
   949                           ;psect for function _main
   950  04DA                     _main:
   951  04DA                     l1598:	
   952                           ;incstack = 0
   953                           ; Regs used in _main: [wreg-fsr0h+status,2+status,0+btemp+1+pclath+cstack]
   954                           
   955                           
   956                           ;coffeemaker.c: 354:     TRISC=0x00;
   957  04DA  1683               	bsf	3,5	;RP0=1, select bank1
   958  04DB  1303               	bcf	3,6	;RP1=0, select bank1
   959  04DC  0187               	clrf	7	;volatile
   960                           
   961                           ;coffeemaker.c: 355:     TRISD=0x00;
   962  04DD  0188               	clrf	8	;volatile
   963  04DE                     l1600:
   964                           
   965                           ;coffeemaker.c: 356:     TRISB=0xF0;
   966  04DE  30F0               	movlw	240
   967  04DF  0086               	movwf	6	;volatile
   968  04E0                     l1602:
   969                           
   970                           ;coffeemaker.c: 357:     TRISA=0x00;
   971  04E0  0185               	clrf	5	;volatile
   972  04E1                     l1604:
   973                           
   974                           ;coffeemaker.c: 358:     TRISE=0x00;
   975  04E1  0189               	clrf	9	;volatile
   976  04E2                     l1606:
   977                           
   978                           ;coffeemaker.c: 359:     PORTEbits.RE0=0;
   979  04E2  1283               	bcf	3,5	;RP0=0, select bank0
   980  04E3  1303               	bcf	3,6	;RP1=0, select bank0
   981  04E4  1009               	bcf	9,0	;volatile
   982  04E5                     l1608:
   983                           
   984                           ;coffeemaker.c: 360:     init();
   985  04E5  120A  158A  2638  120A  118A  	fcall	_init
   986  04EA                     l1610:
   987                           
   988                           ;coffeemaker.c: 361:     RA0=0;
   989  04EA  1283               	bcf	3,5	;RP0=0, select bank0
   990  04EB  1303               	bcf	3,6	;RP1=0, select bank0
   991  04EC  1005               	bcf	5,0	;volatile
   992  04ED                     l1612:
   993                           
   994                           ;coffeemaker.c: 362:     RD4 =0;
   995  04ED  1208               	bcf	8,4	;volatile
   996  04EE                     l1614:
   997                           
   998                           ;coffeemaker.c: 363:     RA1=0;
   999  04EE  1085               	bcf	5,1	;volatile
  1000  04EF                     l1616:
  1001                           
  1002                           ;coffeemaker.c: 364:     RD5 =0;
  1003  04EF  1288               	bcf	8,5	;volatile
  1004  04F0                     l1618:
  1005                           
  1006                           ;coffeemaker.c: 365:     RA2 =0;
  1007  04F0  1105               	bcf	5,2	;volatile
  1008  04F1                     l1620:
  1009                           
  1010                           ;coffeemaker.c: 366:     RD3 =1;
  1011  04F1  1588               	bsf	8,3	;volatile
  1012  04F2                     l1622:
  1013                           
  1014                           ;coffeemaker.c: 367:     RA3=0;
  1015  04F2  1185               	bcf	5,3	;volatile
  1016  04F3                     l1624:
  1017                           
  1018                           ;coffeemaker.c: 368:     RA5=0;
  1019  04F3  1285               	bcf	5,5	;volatile
  1020  04F4                     l1626:
  1021                           
  1022                           ;coffeemaker.c: 369:     RD6 =0;
  1023  04F4  1308               	bcf	8,6	;volatile
  1024  04F5                     l1628:
  1025                           
  1026                           ;coffeemaker.c: 370:     char arr[8][10]={"deeraj","naveen","shreyas","vishwas","yashwan
      +                          th","sam","venkat","teja"};
  1027  04F5  30A0               	movlw	main@arr& (0+255)
  1028  04F6  0084               	movwf	4
  1029  04F7  3010               	movlw	low main@F1018
  1030  04F8  00AC               	movwf	??_main
  1031  04F9  0804               	movf	4,w
  1032  04FA  00AD               	movwf	??_main+1
  1033  04FB  3050               	movlw	80
  1034  04FC  00AE               	movwf	??_main+2
  1035  04FD                     u1110:
  1036  04FD  082C               	movf	??_main,w
  1037  04FE  0084               	movwf	4
  1038  04FF  1783               	bsf	3,7	;select IRP bank2
  1039  0500  0800               	movf	0,w
  1040  0501  00AF               	movwf	??_main+3
  1041  0502  0AAC               	incf	??_main,f
  1042  0503  082D               	movf	??_main+1,w
  1043  0504  0084               	movwf	4
  1044  0505  1383               	bcf	3,7	;select IRP bank1
  1045  0506  082F               	movf	??_main+3,w
  1046  0507  0080               	movwf	0
  1047  0508  0AAD               	incf	??_main+1,f
  1048  0509  0BAE               	decfsz	??_main+2,f
  1049  050A  2CFD               	goto	u1110
  1050  050B                     l1630:
  1051                           
  1052                           ;coffeemaker.c: 371:     char arr2[8][5]={" 1234"," 5678"," 1028"," 7923"," 5210"," 2964
      +                          "," 5791"," 0024"};
  1053  050B  3030               	movlw	main@arr2& (0+255)
  1054  050C  0084               	movwf	4
  1055  050D  3090               	movlw	low main@F1022
  1056  050E  00AC               	movwf	??_main
  1057  050F  0804               	movf	4,w
  1058  0510  00AD               	movwf	??_main+1
  1059  0511  3028               	movlw	40
  1060  0512  00AE               	movwf	??_main+2
  1061  0513                     u1120:
  1062  0513  082C               	movf	??_main,w
  1063  0514  0084               	movwf	4
  1064  0515  1783               	bsf	3,7	;select IRP bank3
  1065  0516  0800               	movf	0,w
  1066  0517  00AF               	movwf	??_main+3
  1067  0518  0AAC               	incf	??_main,f
  1068  0519  082D               	movf	??_main+1,w
  1069  051A  0084               	movwf	4
  1070  051B  1383               	bcf	3,7	;select IRP bank0
  1071  051C  082F               	movf	??_main+3,w
  1072  051D  0080               	movwf	0
  1073  051E  0AAD               	incf	??_main+1,f
  1074  051F  0BAE               	decfsz	??_main+2,f
  1075  0520  2D13               	goto	u1120
  1076  0521                     l1632:
  1077                           
  1078                           ;coffeemaker.c: 372:     char arr3[8][1]={"0","0","0","0","0","0","0","0"};
  1079  0521  305E               	movlw	main@arr3& (0+255)
  1080  0522  0084               	movwf	4
  1081  0523  30B8               	movlw	low main@F1026
  1082  0524  00AC               	movwf	??_main
  1083  0525  0804               	movf	4,w
  1084  0526  00AD               	movwf	??_main+1
  1085  0527  3008               	movlw	8
  1086  0528  00AE               	movwf	??_main+2
  1087  0529                     u1130:
  1088  0529  082C               	movf	??_main,w
  1089  052A  0084               	movwf	4
  1090  052B  1783               	bsf	3,7	;select IRP bank3
  1091  052C  0800               	movf	0,w
  1092  052D  00AF               	movwf	??_main+3
  1093  052E  0AAC               	incf	??_main,f
  1094  052F  082D               	movf	??_main+1,w
  1095  0530  0084               	movwf	4
  1096  0531  1383               	bcf	3,7	;select IRP bank0
  1097  0532  082F               	movf	??_main+3,w
  1098  0533  0080               	movwf	0
  1099  0534  0AAD               	incf	??_main+1,f
  1100  0535  0BAE               	decfsz	??_main+2,f
  1101  0536  2D29               	goto	u1130
  1102  0537                     l1634:
  1103                           
  1104                           ;coffeemaker.c: 373:     instruct(0x80);
  1105  0537  3080               	movlw	128
  1106  0538  120A  158A  2606  120A  118A  	fcall	_instruct
  1107  053D                     l1636:
  1108                           
  1109                           ;coffeemaker.c: 374:     strin(" WELCOME",8);
  1110  053D  30CC               	movlw	(low ((STR_16-__stringbase)| (0+32768)))& (0+255)
  1111  053E  00F4               	movwf	strin@stri
  1112  053F  3080               	movlw	128
  1113  0540  00F5               	movwf	strin@stri+1
  1114  0541  3008               	movlw	8
  1115  0542  00F6               	movwf	strin@n
  1116  0543  3000               	movlw	0
  1117  0544  00F7               	movwf	strin@n+1
  1118  0545  120A  158A  2651  120A  118A  	fcall	_strin
  1119  054A                     l1638:
  1120                           
  1121                           ;coffeemaker.c: 375:     _delay((unsigned long)((1000)*(1000000/4000.0)));
  1122  054A  3002               	movlw	2
  1123  054B  1283               	bcf	3,5	;RP0=0, select bank0
  1124  054C  1303               	bcf	3,6	;RP1=0, select bank0
  1125  054D  00AE               	movwf	??_main+2
  1126  054E  3045               	movlw	69
  1127  054F  00AD               	movwf	??_main+1
  1128  0550  30A9               	movlw	169
  1129  0551  00AC               	movwf	??_main
  1130  0552                     u1217:
  1131  0552  0BAC               	decfsz	??_main,f
  1132  0553  2D52               	goto	u1217
  1133  0554  0BAD               	decfsz	??_main+1,f
  1134  0555  2D52               	goto	u1217
  1135  0556  0BAE               	decfsz	??_main+2,f
  1136  0557  2D52               	goto	u1217
  1137  0558                     l1640:
  1138                           
  1139                           ;coffeemaker.c: 377:     {;coffeemaker.c: 378:         instruct(0x01);
  1140  0558  3001               	movlw	1
  1141  0559  120A  158A  2606  120A  118A  	fcall	_instruct
  1142  055E                     l1642:
  1143                           
  1144                           ;coffeemaker.c: 379:         strin(" ENTER ID :",11);
  1145  055E  30AC               	movlw	(low ((STR_17-__stringbase)| (0+32768)))& (0+255)
  1146  055F  00F4               	movwf	strin@stri
  1147  0560  3080               	movlw	128
  1148  0561  00F5               	movwf	strin@stri+1
  1149  0562  300B               	movlw	11
  1150  0563  00F6               	movwf	strin@n
  1151  0564  3000               	movlw	0
  1152  0565  00F7               	movwf	strin@n+1
  1153  0566  120A  158A  2651  120A  118A  	fcall	_strin
  1154  056B                     l1644:
  1155                           
  1156                           ;coffeemaker.c: 380:         _delay((unsigned long)((10)*(1000000/4000.0)));
  1157  056B  3004               	movlw	4
  1158  056C  1283               	bcf	3,5	;RP0=0, select bank0
  1159  056D  1303               	bcf	3,6	;RP1=0, select bank0
  1160  056E  00AD               	movwf	??_main+1
  1161  056F  303D               	movlw	61
  1162  0570  00AC               	movwf	??_main
  1163  0571                     u1227:
  1164  0571  0BAC               	decfsz	??_main,f
  1165  0572  2D71               	goto	u1227
  1166  0573  0BAD               	decfsz	??_main+1,f
  1167  0574  2D71               	goto	u1227
  1168  0575                     l1646:
  1169                           
  1170                           ;coffeemaker.c: 381:         int i;;coffeemaker.c: 382:         i=1;
  1171  0575  3001               	movlw	1
  1172  0576  1283               	bcf	3,5	;RP0=0, select bank0
  1173  0577  1303               	bcf	3,6	;RP1=0, select bank0
  1174  0578  00EC               	movwf	main@i
  1175  0579  3000               	movlw	0
  1176  057A  00ED               	movwf	main@i+1
  1177  057B                     l1648:
  1178                           
  1179                           ;coffeemaker.c: 383:         char pass[]="     ";
  1180  057B  3058               	movlw	main@pass& (0+255)
  1181  057C  0084               	movwf	4
  1182  057D  1683               	bsf	3,5	;RP0=1, select bank3
  1183  057E  1703               	bsf	3,6	;RP1=1, select bank3
  1184  057F  0840               	movf	main@F1031^(0+384),w
  1185  0580  1383               	bcf	3,7	;select IRP bank0
  1186  0581  0080               	movwf	0
  1187  0582  0A84               	incf	4,f
  1188  0583  0841               	movf	(main@F1031^(0+384)+1),w
  1189  0584  0080               	movwf	0
  1190  0585  0A84               	incf	4,f
  1191  0586  0842               	movf	(main@F1031^(0+384)+2),w
  1192  0587  0080               	movwf	0
  1193  0588  0A84               	incf	4,f
  1194  0589  0843               	movf	(main@F1031^(0+384)+3),w
  1195  058A  0080               	movwf	0
  1196  058B  0A84               	incf	4,f
  1197  058C  0844               	movf	(main@F1031^(0+384)+4),w
  1198  058D  0080               	movwf	0
  1199  058E  0A84               	incf	4,f
  1200  058F  0845               	movf	(main@F1031^(0+384)+5),w
  1201  0590  0080               	movwf	0
  1202                           
  1203                           ;coffeemaker.c: 384:         char k;;coffeemaker.c: 385:         while(i<5)
  1204  0591  2DAC               	goto	l1656
  1205  0592                     l1650:
  1206                           
  1207                           ;coffeemaker.c: 386:         {;coffeemaker.c: 387:             k=keypad();
  1208  0592  120A  158A  271D  120A  118A  	fcall	_keypad
  1209  0597  1283               	bcf	3,5	;RP0=0, select bank0
  1210  0598  1303               	bcf	3,6	;RP1=0, select bank0
  1211  0599  00AC               	movwf	??_main
  1212  059A  082C               	movf	??_main,w
  1213  059B  00EE               	movwf	main@k
  1214  059C                     l1652:
  1215                           
  1216                           ;coffeemaker.c: 388:             pass[i]=k;
  1217  059C  086E               	movf	main@k,w
  1218  059D  00AC               	movwf	??_main
  1219  059E  086C               	movf	main@i,w
  1220  059F  3E58               	addlw	(low (main@pass| 0))& (0+255)
  1221  05A0  0084               	movwf	4
  1222  05A1  082C               	movf	??_main,w
  1223  05A2  1383               	bcf	3,7	;select IRP bank0
  1224  05A3  0080               	movwf	0
  1225  05A4                     l1654:
  1226                           
  1227                           ;coffeemaker.c: 389:             i=i+1;
  1228  05A4  086C               	movf	main@i,w
  1229  05A5  3E01               	addlw	1
  1230  05A6  00EC               	movwf	main@i
  1231  05A7  086D               	movf	main@i+1,w
  1232  05A8  1803               	skipnc
  1233  05A9  3E01               	addlw	1
  1234  05AA  3E00               	addlw	0
  1235  05AB  00ED               	movwf	main@i+1
  1236  05AC                     l1656:
  1237                           
  1238                           ;coffeemaker.c: 385:         while(i<5)
  1239  05AC  1283               	bcf	3,5	;RP0=0, select bank0
  1240  05AD  1303               	bcf	3,6	;RP1=0, select bank0
  1241  05AE  086D               	movf	main@i+1,w
  1242  05AF  3A80               	xorlw	128
  1243  05B0  00FF               	movwf	btemp+1
  1244  05B1  3080               	movlw	128
  1245  05B2  027F               	subwf	btemp+1,w
  1246  05B3  1D03               	skipz
  1247  05B4  2DB7               	goto	u1145
  1248  05B5  3005               	movlw	5
  1249  05B6  026C               	subwf	main@i,w
  1250  05B7                     u1145:
  1251  05B7  1C03               	skipc
  1252  05B8  2DBA               	goto	u1141
  1253  05B9  2DBB               	goto	u1140
  1254  05BA                     u1141:
  1255  05BA  2D92               	goto	l1650
  1256  05BB                     u1140:
  1257  05BB                     l181:
  1258                           
  1259                           ;coffeemaker.c: 391:         PORTEbits.RE0=1;
  1260  05BB  1283               	bcf	3,5	;RP0=0, select bank0
  1261  05BC  1303               	bcf	3,6	;RP1=0, select bank0
  1262  05BD  1409               	bsf	9,0	;volatile
  1263  05BE                     l1658:
  1264                           
  1265                           ;coffeemaker.c: 392:         instruct(0x01);
  1266  05BE  3001               	movlw	1
  1267  05BF  120A  158A  2606  120A  118A  	fcall	_instruct
  1268  05C4                     l1660:
  1269  05C4                     l1662:
  1270                           
  1271                           ;coffeemaker.c: 400:         char x[1];;coffeemaker.c: 401:         int flag=0;
  1272  05C4  1283               	bcf	3,5	;RP0=0, select bank0
  1273  05C5  1303               	bcf	3,6	;RP1=0, select bank0
  1274  05C6  01EA               	clrf	main@flag
  1275  05C7  01EB               	clrf	main@flag+1
  1276  05C8                     l1664:
  1277                           
  1278                           ;coffeemaker.c: 402:         for (int j = 0;j<7;j++)
  1279  05C8  1683               	bsf	3,5	;RP0=1, select bank3
  1280  05C9  1703               	bsf	3,6	;RP1=1, select bank3
  1281  05CA  01C6               	clrf	main@j^(0+384)
  1282  05CB  01C7               	clrf	(main@j+1)^(0+384)
  1283  05CC                     l1670:
  1284                           
  1285                           ;coffeemaker.c: 403:         {;coffeemaker.c: 404:             int value = compare(arr2[
      +                          j],pass,5);
  1286  05CC  3058               	movlw	(low (main@pass| 0))& (0+255)
  1287  05CD  00F4               	movwf	compare@str2
  1288  05CE  3000               	movlw	0
  1289  05CF  00F5               	movwf	compare@str2+1
  1290  05D0  3005               	movlw	5
  1291  05D1  00F6               	movwf	compare@len
  1292  05D2  3000               	movlw	0
  1293  05D3  00F7               	movwf	compare@len+1
  1294  05D4  3005               	movlw	5
  1295  05D5  1283               	bcf	3,5	;RP0=0, select bank0
  1296  05D6  1303               	bcf	3,6	;RP1=0, select bank0
  1297  05D7  00AC               	movwf	??_main
  1298  05D8  082C               	movf	??_main,w
  1299  05D9  00F0               	movwf	___bmul@multiplicand
  1300  05DA  1683               	bsf	3,5	;RP0=1, select bank3
  1301  05DB  1703               	bsf	3,6	;RP1=1, select bank3
  1302  05DC  0846               	movf	main@j^(0+384),w
  1303  05DD  120A  158A  2623  120A  118A  	fcall	___bmul
  1304  05E2  3E30               	addlw	(low (main@arr2| 0))& (0+255)
  1305  05E3  120A  158A  2685  120A  118A  	fcall	_compare
  1306  05E8  0875               	movf	?_compare+1,w
  1307  05E9  1283               	bcf	3,5	;RP0=0, select bank0
  1308  05EA  1303               	bcf	3,6	;RP1=0, select bank0
  1309  05EB  00E7               	movwf	main@value+1
  1310  05EC  0874               	movf	?_compare,w
  1311  05ED  00E6               	movwf	main@value
  1312  05EE                     l1672:
  1313                           
  1314                           ;coffeemaker.c: 405:             if( value == 0 )
  1315  05EE  0866               	movf	main@value,w
  1316  05EF  0467               	iorwf	main@value+1,w
  1317  05F0  1D03               	btfss	3,2
  1318  05F1  2DF3               	goto	u1151
  1319  05F2  2DF4               	goto	u1150
  1320  05F3                     u1151:
  1321  05F3  2E48               	goto	l1686
  1322  05F4                     u1150:
  1323  05F4                     l1674:
  1324                           
  1325                           ;coffeemaker.c: 406:             {;coffeemaker.c: 407:                 var = j;
  1326  05F4  1683               	bsf	3,5	;RP0=1, select bank3
  1327  05F5  1703               	bsf	3,6	;RP1=1, select bank3
  1328  05F6  0847               	movf	(main@j+1)^(0+384),w
  1329  05F7  00C9               	movwf	(main@var+1)^(0+384)
  1330  05F8  0846               	movf	main@j^(0+384),w
  1331  05F9  00C8               	movwf	main@var^(0+384)
  1332                           
  1333                           ;coffeemaker.c: 408:                 flag=1;
  1334  05FA  3001               	movlw	1
  1335  05FB  1283               	bcf	3,5	;RP0=0, select bank0
  1336  05FC  1303               	bcf	3,6	;RP1=0, select bank0
  1337  05FD  00EA               	movwf	main@flag
  1338  05FE  3000               	movlw	0
  1339  05FF  00EB               	movwf	main@flag+1
  1340  0600                     l1676:
  1341                           
  1342                           ;coffeemaker.c: 409:                 instruct(0x80);
  1343  0600  3080               	movlw	128
  1344  0601  120A  158A  2606  120A  118A  	fcall	_instruct
  1345  0606                     l1678:
  1346                           
  1347                           ;coffeemaker.c: 410:                 strin(" HI ",4);
  1348  0606  30D5               	movlw	(low ((STR_18-__stringbase)| (0+32768)))& (0+255)
  1349  0607  00F4               	movwf	strin@stri
  1350  0608  3080               	movlw	128
  1351  0609  00F5               	movwf	strin@stri+1
  1352  060A  3004               	movlw	4
  1353  060B  00F6               	movwf	strin@n
  1354  060C  3000               	movlw	0
  1355  060D  00F7               	movwf	strin@n+1
  1356  060E  120A  158A  2651  120A  118A  	fcall	_strin
  1357  0613                     l1680:
  1358                           
  1359                           ;coffeemaker.c: 411:                 instruct(0xC0);
  1360  0613  30C0               	movlw	192
  1361  0614  120A  158A  2606  120A  118A  	fcall	_instruct
  1362  0619                     l1682:
  1363                           
  1364                           ;coffeemaker.c: 412:                 strin(arr[j],9);
  1365  0619  300A               	movlw	10
  1366  061A  1283               	bcf	3,5	;RP0=0, select bank0
  1367  061B  1303               	bcf	3,6	;RP1=0, select bank0
  1368  061C  00AC               	movwf	??_main
  1369  061D  082C               	movf	??_main,w
  1370  061E  00F0               	movwf	___bmul@multiplicand
  1371  061F  1683               	bsf	3,5	;RP0=1, select bank3
  1372  0620  1703               	bsf	3,6	;RP1=1, select bank3
  1373  0621  0846               	movf	main@j^(0+384),w
  1374  0622  120A  158A  2623  120A  118A  	fcall	___bmul
  1375  0627  3EA0               	addlw	(low (main@arr| 0))& (0+255)
  1376  0628  00F4               	movwf	strin@stri
  1377  0629  3000               	movlw	0
  1378  062A  00F5               	movwf	strin@stri+1
  1379  062B  3009               	movlw	9
  1380  062C  00F6               	movwf	strin@n
  1381  062D  3000               	movlw	0
  1382  062E  00F7               	movwf	strin@n+1
  1383  062F  120A  158A  2651  120A  118A  	fcall	_strin
  1384                           
  1385                           ;coffeemaker.c: 413:                 _delay((unsigned long)((1000)*(1000000/4000.0)));
  1386  0634  3002               	movlw	2
  1387  0635  1283               	bcf	3,5	;RP0=0, select bank0
  1388  0636  1303               	bcf	3,6	;RP1=0, select bank0
  1389  0637  00AE               	movwf	??_main+2
  1390  0638  3045               	movlw	69
  1391  0639  00AD               	movwf	??_main+1
  1392  063A  30A9               	movlw	169
  1393  063B  00AC               	movwf	??_main
  1394  063C                     u1237:
  1395  063C  0BAC               	decfsz	??_main,f
  1396  063D  2E3C               	goto	u1237
  1397  063E  0BAD               	decfsz	??_main+1,f
  1398  063F  2E3C               	goto	u1237
  1399  0640  0BAE               	decfsz	??_main+2,f
  1400  0641  2E3C               	goto	u1237
  1401  0642                     l1684:
  1402                           
  1403                           ;coffeemaker.c: 415:                 instruct(0x01);
  1404  0642  3001               	movlw	1
  1405  0643  120A  158A  2606  120A  118A  	fcall	_instruct
  1406  0648                     l1686:
  1407                           
  1408                           ;coffeemaker.c: 418:         }
  1409  0648  3001               	movlw	1
  1410  0649  1683               	bsf	3,5	;RP0=1, select bank3
  1411  064A  1703               	bsf	3,6	;RP1=1, select bank3
  1412  064B  07C6               	addwf	main@j^(0+384),f
  1413  064C  1803               	skipnc
  1414  064D  0AC7               	incf	(main@j+1)^(0+384),f
  1415  064E  3000               	movlw	0
  1416  064F  07C7               	addwf	(main@j+1)^(0+384),f
  1417  0650                     l1688:
  1418  0650  0847               	movf	(main@j+1)^(0+384),w
  1419  0651  3A80               	xorlw	128
  1420  0652  00FF               	movwf	btemp+1
  1421  0653  3080               	movlw	128
  1422  0654  027F               	subwf	btemp+1,w
  1423  0655  1D03               	skipz
  1424  0656  2E59               	goto	u1165
  1425  0657  3007               	movlw	7
  1426  0658  0246               	subwf	main@j^(0+384),w
  1427  0659                     u1165:
  1428  0659  1C03               	skipc
  1429  065A  2E5C               	goto	u1161
  1430  065B  2E5D               	goto	u1160
  1431  065C                     u1161:
  1432  065C  2DCC               	goto	l1670
  1433  065D                     u1160:
  1434  065D                     l1690:
  1435                           
  1436                           ;coffeemaker.c: 420:         if(flag==0)
  1437  065D  1283               	bcf	3,5	;RP0=0, select bank0
  1438  065E  1303               	bcf	3,6	;RP1=0, select bank0
  1439  065F  086A               	movf	main@flag,w
  1440  0660  046B               	iorwf	main@flag+1,w
  1441  0661  1D03               	btfss	3,2
  1442  0662  2E64               	goto	u1171
  1443  0663  2E65               	goto	u1170
  1444  0664                     u1171:
  1445  0664  2E87               	goto	l1698
  1446  0665                     u1170:
  1447  0665                     l1692:
  1448                           
  1449                           ;coffeemaker.c: 421:         {;coffeemaker.c: 422:             instruct(0x80);
  1450  0665  3080               	movlw	128
  1451  0666  120A  158A  2606  120A  118A  	fcall	_instruct
  1452  066B                     l1694:
  1453                           
  1454                           ;coffeemaker.c: 423:             strin(" WRONG ID!!",11);
  1455  066B  30A0               	movlw	(low ((STR_19-__stringbase)| (0+32768)))& (0+255)
  1456  066C  00F4               	movwf	strin@stri
  1457  066D  3080               	movlw	128
  1458  066E  00F5               	movwf	strin@stri+1
  1459  066F  300B               	movlw	11
  1460  0670  00F6               	movwf	strin@n
  1461  0671  3000               	movlw	0
  1462  0672  00F7               	movwf	strin@n+1
  1463  0673  120A  158A  2651  120A  118A  	fcall	_strin
  1464  0678                     l1696:
  1465                           
  1466                           ;coffeemaker.c: 424:             _delay((unsigned long)((1000)*(1000000/4000.0)));
  1467  0678  3002               	movlw	2
  1468  0679  1283               	bcf	3,5	;RP0=0, select bank0
  1469  067A  1303               	bcf	3,6	;RP1=0, select bank0
  1470  067B  00AE               	movwf	??_main+2
  1471  067C  3045               	movlw	69
  1472  067D  00AD               	movwf	??_main+1
  1473  067E  30A9               	movlw	169
  1474  067F  00AC               	movwf	??_main
  1475  0680                     u1247:
  1476  0680  0BAC               	decfsz	??_main,f
  1477  0681  2E80               	goto	u1247
  1478  0682  0BAD               	decfsz	??_main+1,f
  1479  0683  2E80               	goto	u1247
  1480  0684  0BAE               	decfsz	??_main+2,f
  1481  0685  2E80               	goto	u1247
  1482                           
  1483                           ;coffeemaker.c: 425:         }
  1484  0686  2FAD               	goto	l1736
  1485  0687                     l1698:
  1486                           
  1487                           ;coffeemaker.c: 427:         {;coffeemaker.c: 428:             int f = compare(arr3[var]
      +                          ,"0",1);
  1488  0687  30DA               	movlw	(low ((STR_20-__stringbase)| (0+32768)))& (0+255)
  1489  0688  00F4               	movwf	compare@str2
  1490  0689  3080               	movlw	128
  1491  068A  00F5               	movwf	compare@str2+1
  1492  068B  3001               	movlw	1
  1493  068C  00F6               	movwf	compare@len
  1494  068D  3000               	movlw	0
  1495  068E  00F7               	movwf	compare@len+1
  1496  068F  1683               	bsf	3,5	;RP0=1, select bank3
  1497  0690  1703               	bsf	3,6	;RP1=1, select bank3
  1498  0691  0848               	movf	main@var^(0+384),w
  1499  0692  3E5E               	addlw	(low (main@arr3| 0))& (0+255)
  1500  0693  120A  158A  2685  120A  118A  	fcall	_compare
  1501  0698  0875               	movf	?_compare+1,w
  1502  0699  1283               	bcf	3,5	;RP0=0, select bank0
  1503  069A  1303               	bcf	3,6	;RP1=0, select bank0
  1504  069B  00E9               	movwf	main@f+1
  1505  069C  0874               	movf	?_compare,w
  1506  069D  00E8               	movwf	main@f
  1507  069E                     l1700:
  1508                           
  1509                           ;coffeemaker.c: 429:             instruct(0x01);
  1510  069E  3001               	movlw	1
  1511  069F  120A  158A  2606  120A  118A  	fcall	_instruct
  1512  06A4                     l1702:
  1513                           
  1514                           ;coffeemaker.c: 430:             if(f == 0)
  1515  06A4  1283               	bcf	3,5	;RP0=0, select bank0
  1516  06A5  1303               	bcf	3,6	;RP1=0, select bank0
  1517  06A6  0868               	movf	main@f,w
  1518  06A7  0469               	iorwf	main@f+1,w
  1519  06A8  1D03               	btfss	3,2
  1520  06A9  2EAB               	goto	u1181
  1521  06AA  2EAC               	goto	u1180
  1522  06AB                     u1181:
  1523  06AB  2EEC               	goto	l1710
  1524  06AC                     u1180:
  1525  06AC                     l1704:
  1526                           
  1527                           ;coffeemaker.c: 431:             {;coffeemaker.c: 432:                 instruct(0x80);
  1528  06AC  3080               	movlw	128
  1529  06AD  120A  158A  2606  120A  118A  	fcall	_instruct
  1530  06B2                     l1706:
  1531                           
  1532                           ;coffeemaker.c: 433:                 strin(" 1:COFFEE 2:TEA",15);
  1533  06B2  3021               	movlw	(low ((STR_21-__stringbase)| (0+32768)))& (0+255)
  1534  06B3  00F4               	movwf	strin@stri
  1535  06B4  3080               	movlw	128
  1536  06B5  00F5               	movwf	strin@stri+1
  1537  06B6  300F               	movlw	15
  1538  06B7  00F6               	movwf	strin@n
  1539  06B8  3000               	movlw	0
  1540  06B9  00F7               	movwf	strin@n+1
  1541  06BA  120A  158A  2651  120A  118A  	fcall	_strin
  1542  06BF                     l1708:
  1543                           
  1544                           ;coffeemaker.c: 434:                 instruct(0xC0);
  1545  06BF  30C0               	movlw	192
  1546  06C0  120A  158A  2606  120A  118A  	fcall	_instruct
  1547                           
  1548                           ;coffeemaker.c: 435:                 strin(" 3:MILK :",9);
  1549  06C5  30C2               	movlw	(low ((STR_22-__stringbase)| (0+32768)))& (0+255)
  1550  06C6  00F4               	movwf	strin@stri
  1551  06C7  3080               	movlw	128
  1552  06C8  00F5               	movwf	strin@stri+1
  1553  06C9  3009               	movlw	9
  1554  06CA  00F6               	movwf	strin@n
  1555  06CB  3000               	movlw	0
  1556  06CC  00F7               	movwf	strin@n+1
  1557  06CD  120A  158A  2651  120A  118A  	fcall	_strin
  1558                           
  1559                           ;coffeemaker.c: 436:                 arr3[var][0]= middle(arr3[var][0]);
  1560  06D2  1683               	bsf	3,5	;RP0=1, select bank3
  1561  06D3  1703               	bsf	3,6	;RP1=1, select bank3
  1562  06D4  0848               	movf	main@var^(0+384),w
  1563  06D5  3E5E               	addlw	(low (main@arr3| 0))& (0+255)
  1564  06D6  0084               	movwf	4
  1565  06D7  1383               	bcf	3,7	;select IRP bank0
  1566  06D8  0800               	movf	0,w
  1567  06D9  120A  118A  2131  120A  118A  	fcall	_middle
  1568  06DE  1283               	bcf	3,5	;RP0=0, select bank0
  1569  06DF  1303               	bcf	3,6	;RP1=0, select bank0
  1570  06E0  00AC               	movwf	??_main
  1571  06E1  1683               	bsf	3,5	;RP0=1, select bank3
  1572  06E2  1703               	bsf	3,6	;RP1=1, select bank3
  1573  06E3  0848               	movf	main@var^(0+384),w
  1574  06E4  3E5E               	addlw	(low (main@arr3| 0))& (0+255)
  1575  06E5  0084               	movwf	4
  1576  06E6  1283               	bcf	3,5	;RP0=0, select bank0
  1577  06E7  1303               	bcf	3,6	;RP1=0, select bank0
  1578  06E8  082C               	movf	??_main,w
  1579  06E9  1383               	bcf	3,7	;select IRP bank0
  1580  06EA  0080               	movwf	0
  1581                           
  1582                           ;coffeemaker.c: 437:             }
  1583  06EB  2FAD               	goto	l1736
  1584  06EC                     l1710:
  1585                           
  1586                           ;coffeemaker.c: 439:             {;coffeemaker.c: 440:                 instruct(0x01);
  1587  06EC  3001               	movlw	1
  1588  06ED  120A  158A  2606  120A  118A  	fcall	_instruct
  1589                           
  1590                           ;coffeemaker.c: 441:                 instruct(0x80);
  1591  06F2  3080               	movlw	128
  1592  06F3  120A  158A  2606  120A  118A  	fcall	_instruct
  1593  06F8                     l1712:
  1594                           
  1595                           ;coffeemaker.c: 442:                 strin(" 1:regular ",11);
  1596  06F8  3094               	movlw	(low ((STR_23-__stringbase)| (0+32768)))& (0+255)
  1597  06F9  00F4               	movwf	strin@stri
  1598  06FA  3080               	movlw	128
  1599  06FB  00F5               	movwf	strin@stri+1
  1600  06FC  300B               	movlw	11
  1601  06FD  00F6               	movwf	strin@n
  1602  06FE  3000               	movlw	0
  1603  06FF  00F7               	movwf	strin@n+1
  1604  0700  120A  158A  2651  120A  118A  	fcall	_strin
  1605  0705                     l1714:
  1606                           
  1607                           ;coffeemaker.c: 443:                 instruct(0xC0);
  1608  0705  30C0               	movlw	192
  1609  0706  120A  158A  2606  120A  118A  	fcall	_instruct
  1610                           
  1611                           ;coffeemaker.c: 444:                 strin(" 2.new : ",9);
  1612  070B  30B8               	movlw	(low ((STR_24-__stringbase)| (0+32768)))& (0+255)
  1613  070C  00F4               	movwf	strin@stri
  1614  070D  3080               	movlw	128
  1615  070E  00F5               	movwf	strin@stri+1
  1616  070F  3009               	movlw	9
  1617  0710  00F6               	movwf	strin@n
  1618  0711  3000               	movlw	0
  1619  0712  00F7               	movwf	strin@n+1
  1620  0713  120A  158A  2651  120A  118A  	fcall	_strin
  1621  0718                     l1716:
  1622                           
  1623                           ;coffeemaker.c: 445:                 k = keypad();
  1624  0718  120A  158A  271D  120A  118A  	fcall	_keypad
  1625  071D  1283               	bcf	3,5	;RP0=0, select bank0
  1626  071E  1303               	bcf	3,6	;RP1=0, select bank0
  1627  071F  00AC               	movwf	??_main
  1628  0720  082C               	movf	??_main,w
  1629  0721  00EE               	movwf	main@k
  1630  0722                     l1718:
  1631                           
  1632                           ;coffeemaker.c: 446:                 if (k == '1')
  1633  0722  3031               	movlw	49
  1634  0723  066E               	xorwf	main@k,w
  1635  0724  1D03               	btfss	3,2
  1636  0725  2F27               	goto	u1191
  1637  0726  2F28               	goto	u1190
  1638  0727                     u1191:
  1639  0727  2F61               	goto	l1728
  1640  0728                     u1190:
  1641  0728                     l1720:
  1642                           
  1643                           ;coffeemaker.c: 447:                 {;coffeemaker.c: 448:                     instruct(
      +                          0x01);
  1644  0728  3001               	movlw	1
  1645  0729  120A  158A  2606  120A  118A  	fcall	_instruct
  1646                           
  1647                           ;coffeemaker.c: 449:                     instruct(0x80);
  1648  072E  3080               	movlw	128
  1649  072F  120A  158A  2606  120A  118A  	fcall	_instruct
  1650  0734                     l1722:
  1651                           
  1652                           ;coffeemaker.c: 450:                     strin(" PREPARING YOUR",15);
  1653  0734  3041               	movlw	(low ((STR_25-__stringbase)| (0+32768)))& (0+255)
  1654  0735  00F4               	movwf	strin@stri
  1655  0736  3080               	movlw	128
  1656  0737  00F5               	movwf	strin@stri+1
  1657  0738  300F               	movlw	15
  1658  0739  00F6               	movwf	strin@n
  1659  073A  3000               	movlw	0
  1660  073B  00F7               	movwf	strin@n+1
  1661  073C  120A  158A  2651  120A  118A  	fcall	_strin
  1662  0741                     l1724:
  1663                           
  1664                           ;coffeemaker.c: 451:                     instruct(0xC0);
  1665  0741  30C0               	movlw	192
  1666  0742  120A  158A  2606  120A  118A  	fcall	_instruct
  1667                           
  1668                           ;coffeemaker.c: 452:                     strin("REGULAR ORDER",13);
  1669  0747  305F               	movlw	(low ((STR_26-__stringbase)| (0+32768)))& (0+255)
  1670  0748  00F4               	movwf	strin@stri
  1671  0749  3080               	movlw	128
  1672  074A  00F5               	movwf	strin@stri+1
  1673  074B  300D               	movlw	13
  1674  074C  00F6               	movwf	strin@n
  1675  074D  3000               	movlw	0
  1676  074E  00F7               	movwf	strin@n+1
  1677  074F  120A  158A  2651  120A  118A  	fcall	_strin
  1678  0754                     l1726:
  1679                           
  1680                           ;coffeemaker.c: 453:                     making(arr3[var][0]);
  1681  0754  1683               	bsf	3,5	;RP0=1, select bank3
  1682  0755  1703               	bsf	3,6	;RP1=1, select bank3
  1683  0756  0848               	movf	main@var^(0+384),w
  1684  0757  3E5E               	addlw	(low (main@arr3| 0))& (0+255)
  1685  0758  0084               	movwf	4
  1686  0759  1383               	bcf	3,7	;select IRP bank0
  1687  075A  0800               	movf	0,w
  1688  075B  120A  118A  22EC  120A  118A  	fcall	_making
  1689                           
  1690                           ;coffeemaker.c: 455:                 }
  1691  0760  2FAD               	goto	l1736
  1692  0761                     l1728:
  1693  0761  3032               	movlw	50
  1694  0762  066E               	xorwf	main@k,w
  1695  0763  1D03               	btfss	3,2
  1696  0764  2F66               	goto	u1201
  1697  0765  2F67               	goto	u1200
  1698  0766                     u1201:
  1699  0766  2FAD               	goto	l188
  1700  0767                     u1200:
  1701  0767                     l1730:
  1702                           
  1703                           ;coffeemaker.c: 457:                 {;coffeemaker.c: 458:                     instruct(
      +                          0x01);
  1704  0767  3001               	movlw	1
  1705  0768  120A  158A  2606  120A  118A  	fcall	_instruct
  1706                           
  1707                           ;coffeemaker.c: 459:                     instruct(0x80);
  1708  076D  3080               	movlw	128
  1709  076E  120A  158A  2606  120A  118A  	fcall	_instruct
  1710  0773                     l1732:
  1711                           
  1712                           ;coffeemaker.c: 460:                     strin(" 1:COFFEE 2:TEA",15);
  1713  0773  3021               	movlw	(low ((STR_21-__stringbase)| (0+32768)))& (0+255)
  1714  0774  00F4               	movwf	strin@stri
  1715  0775  3080               	movlw	128
  1716  0776  00F5               	movwf	strin@stri+1
  1717  0777  300F               	movlw	15
  1718  0778  00F6               	movwf	strin@n
  1719  0779  3000               	movlw	0
  1720  077A  00F7               	movwf	strin@n+1
  1721  077B  120A  158A  2651  120A  118A  	fcall	_strin
  1722  0780                     l1734:
  1723                           
  1724                           ;coffeemaker.c: 461:                     instruct(0xC0);
  1725  0780  30C0               	movlw	192
  1726  0781  120A  158A  2606  120A  118A  	fcall	_instruct
  1727                           
  1728                           ;coffeemaker.c: 462:                     strin(" 3:MILK :",9);
  1729  0786  30C2               	movlw	(low ((STR_22-__stringbase)| (0+32768)))& (0+255)
  1730  0787  00F4               	movwf	strin@stri
  1731  0788  3080               	movlw	128
  1732  0789  00F5               	movwf	strin@stri+1
  1733  078A  3009               	movlw	9
  1734  078B  00F6               	movwf	strin@n
  1735  078C  3000               	movlw	0
  1736  078D  00F7               	movwf	strin@n+1
  1737  078E  120A  158A  2651  120A  118A  	fcall	_strin
  1738                           
  1739                           ;coffeemaker.c: 463:                     arr3[var][0]= middle(arr3[var][0]);
  1740  0793  1683               	bsf	3,5	;RP0=1, select bank3
  1741  0794  1703               	bsf	3,6	;RP1=1, select bank3
  1742  0795  0848               	movf	main@var^(0+384),w
  1743  0796  3E5E               	addlw	(low (main@arr3| 0))& (0+255)
  1744  0797  0084               	movwf	4
  1745  0798  1383               	bcf	3,7	;select IRP bank0
  1746  0799  0800               	movf	0,w
  1747  079A  120A  118A  2131  120A  118A  	fcall	_middle
  1748  079F  1283               	bcf	3,5	;RP0=0, select bank0
  1749  07A0  1303               	bcf	3,6	;RP1=0, select bank0
  1750  07A1  00AC               	movwf	??_main
  1751  07A2  1683               	bsf	3,5	;RP0=1, select bank3
  1752  07A3  1703               	bsf	3,6	;RP1=1, select bank3
  1753  07A4  0848               	movf	main@var^(0+384),w
  1754  07A5  3E5E               	addlw	(low (main@arr3| 0))& (0+255)
  1755  07A6  0084               	movwf	4
  1756  07A7  1283               	bcf	3,5	;RP0=0, select bank0
  1757  07A8  1303               	bcf	3,6	;RP1=0, select bank0
  1758  07A9  082C               	movf	??_main,w
  1759  07AA  1383               	bcf	3,7	;select IRP bank0
  1760  07AB  0080               	movwf	0
  1761  07AC  2FAD               	goto	l1736
  1762  07AD                     l188:	
  1763                           ;coffeemaker.c: 466:             }
  1764                           
  1765  07AD                     l1736:
  1766                           
  1767                           ;coffeemaker.c: 468:     instruct(0x01);
  1768  07AD  3001               	movlw	1
  1769  07AE  120A  158A  2606  120A  118A  	fcall	_instruct
  1770  07B3                     l1738:
  1771                           
  1772                           ;coffeemaker.c: 469:     instruct(0x80);
  1773  07B3  3080               	movlw	128
  1774  07B4  120A  158A  2606  120A  118A  	fcall	_instruct
  1775                           
  1776                           ;coffeemaker.c: 470:     strin(" THANK YOU!!",12);
  1777  07B9  306D               	movlw	(low ((STR_29-__stringbase)| (0+32768)))& (0+255)
  1778  07BA  00F4               	movwf	strin@stri
  1779  07BB  3080               	movlw	128
  1780  07BC  00F5               	movwf	strin@stri+1
  1781  07BD  300C               	movlw	12
  1782  07BE  00F6               	movwf	strin@n
  1783  07BF  3000               	movlw	0
  1784  07C0  00F7               	movwf	strin@n+1
  1785  07C1  120A  158A  2651  120A  118A  	fcall	_strin
  1786  07C6                     l1740:
  1787                           
  1788                           ;coffeemaker.c: 471:     _delay((unsigned long)((1000)*(1000000/4000.0)));
  1789  07C6  3002               	movlw	2
  1790  07C7  1283               	bcf	3,5	;RP0=0, select bank0
  1791  07C8  1303               	bcf	3,6	;RP1=0, select bank0
  1792  07C9  00AE               	movwf	??_main+2
  1793  07CA  3045               	movlw	69
  1794  07CB  00AD               	movwf	??_main+1
  1795  07CC  30A9               	movlw	169
  1796  07CD  00AC               	movwf	??_main
  1797  07CE                     u1257:
  1798  07CE  0BAC               	decfsz	??_main,f
  1799  07CF  2FCE               	goto	u1257
  1800  07D0  0BAD               	decfsz	??_main+1,f
  1801  07D1  2FCE               	goto	u1257
  1802  07D2  0BAE               	decfsz	??_main+2,f
  1803  07D3  2FCE               	goto	u1257
  1804  07D4                     l1742:
  1805                           
  1806                           ;coffeemaker.c: 472:     instruct(0x01);
  1807  07D4  3001               	movlw	1
  1808  07D5  120A  158A  2606  120A  118A  	fcall	_instruct
  1809  07DA                     l1744:
  1810                           
  1811                           ;coffeemaker.c: 473:     PORTEbits.RE0=0;
  1812  07DA  1283               	bcf	3,5	;RP0=0, select bank0
  1813  07DB  1303               	bcf	3,6	;RP1=0, select bank0
  1814  07DC  1009               	bcf	9,0	;volatile
  1815  07DD  2D58               	goto	l1640
  1816  07DE  120A  118A  2800   	ljmp	start
  1817  07E1                     __end_of_main:
  1818                           
  1819                           	psect	text1
  1820  0131                     __ptext1:	
  1821 ;; *************** function _middle *****************
  1822 ;; Defined at:
  1823 ;;		line 279 in file "coffeemaker.c"
  1824 ;; Parameters:    Size  Location     Type
  1825 ;;  str             1    wreg     unsigned char 
  1826 ;; Auto vars:     Size  Location     Type
  1827 ;;  str             1    9[BANK0 ] unsigned char 
  1828 ;;  d               2    7[BANK0 ] int 
  1829 ;;  d               2    5[BANK0 ] int 
  1830 ;;  d               2    3[BANK0 ] int 
  1831 ;;  k               1   11[BANK0 ] unsigned char 
  1832 ;;  x               1   10[BANK0 ] unsigned char [1]
  1833 ;; Return value:  Size  Location     Type
  1834 ;;                  1    wreg      unsigned char 
  1835 ;; Registers used:
  1836 ;;		wreg, fsr0l, fsr0h, status,2, status,0, btemp+1, pclath, cstack
  1837 ;; Tracked objects:
  1838 ;;		On entry : 0/0
  1839 ;;		On exit  : 0/0
  1840 ;;		Unchanged: 0/0
  1841 ;; Data sizes:     COMMON   BANK0   BANK1   BANK3   BANK2
  1842 ;;      Params:         0       0       0       0       0
  1843 ;;      Locals:         0       9       0       0       0
  1844 ;;      Temps:          1       0       0       0       0
  1845 ;;      Totals:         1       9       0       0       0
  1846 ;;Total ram usage:       10 bytes
  1847 ;; Hardware stack levels used: 1
  1848 ;; Hardware stack levels required when called: 2
  1849 ;; This function calls:
  1850 ;;		_compare
  1851 ;;		_instruct
  1852 ;;		_keypad
  1853 ;;		_making
  1854 ;;		_strin
  1855 ;; This function is called by:
  1856 ;;		_main
  1857 ;; This function uses a non-reentrant model
  1858 ;;
  1859                           
  1860                           
  1861                           ;psect for function _middle
  1862  0131                     _middle:
  1863                           
  1864                           ;incstack = 0
  1865                           ; Regs used in _middle: [wreg-fsr0h+status,2+status,0+btemp+1+pclath+cstack]
  1866                           ;middle@str stored from wreg
  1867  0131  1283               	bcf	3,5	;RP0=0, select bank0
  1868  0132  1303               	bcf	3,6	;RP1=0, select bank0
  1869  0133  00A9               	movwf	middle@str
  1870  0134                     l1508:
  1871                           
  1872                           ;coffeemaker.c: 279: char middle(char str);coffeemaker.c: 280: {;coffeemaker.c: 281:    
      +                           char k;;coffeemaker.c: 282:     char x[1];;coffeemaker.c: 283:         k = keypad();
  1873  0134  120A  158A  271D  120A  118A  	fcall	_keypad
  1874  0139  00FD               	movwf	??_middle
  1875  013A  087D               	movf	??_middle,w
  1876  013B  1283               	bcf	3,5	;RP0=0, select bank0
  1877  013C  1303               	bcf	3,6	;RP1=0, select bank0
  1878  013D  00AB               	movwf	middle@k
  1879  013E                     l1510:
  1880                           
  1881                           ;coffeemaker.c: 284:         if(k =='1')
  1882  013E  3031               	movlw	49
  1883  013F  062B               	xorwf	middle@k,w
  1884  0140  1D03               	btfss	3,2
  1885  0141  2943               	goto	u1031
  1886  0142  2944               	goto	u1030
  1887  0143                     u1031:
  1888  0143  29CD               	goto	l1534
  1889  0144                     u1030:
  1890  0144                     l1512:
  1891                           
  1892                           ;coffeemaker.c: 285:         {;coffeemaker.c: 286:             instruct(0x01);
  1893  0144  3001               	movlw	1
  1894  0145  120A  158A  2606  120A  118A  	fcall	_instruct
  1895                           
  1896                           ;coffeemaker.c: 287:             instruct(0x80);
  1897  014A  3080               	movlw	128
  1898  014B  120A  158A  2606  120A  118A  	fcall	_instruct
  1899  0150                     l1514:
  1900                           
  1901                           ;coffeemaker.c: 288:             strin(" PLEASE WAIT...",15);
  1902  0150  3001               	movlw	(low ((STR_1-__stringbase)| (0+32768)))& (0+255)
  1903  0151  00F4               	movwf	strin@stri
  1904  0152  3080               	movlw	128
  1905  0153  00F5               	movwf	strin@stri+1
  1906  0154  300F               	movlw	15
  1907  0155  00F6               	movwf	strin@n
  1908  0156  3000               	movlw	0
  1909  0157  00F7               	movwf	strin@n+1
  1910  0158  120A  158A  2651  120A  118A  	fcall	_strin
  1911  015D                     l1516:
  1912                           
  1913                           ;coffeemaker.c: 289:             instruct(0xC0);
  1914  015D  30C0               	movlw	192
  1915  015E  120A  158A  2606  120A  118A  	fcall	_instruct
  1916                           
  1917                           ;coffeemaker.c: 290:             strin("FOR YOUR COFFEE",16);
  1918  0163  3031               	movlw	(low ((STR_2-__stringbase)| (0+32768)))& (0+255)
  1919  0164  00F4               	movwf	strin@stri
  1920  0165  3080               	movlw	128
  1921  0166  00F5               	movwf	strin@stri+1
  1922  0167  3010               	movlw	16
  1923  0168  00F6               	movwf	strin@n
  1924  0169  3000               	movlw	0
  1925  016A  00F7               	movwf	strin@n+1
  1926  016B  120A  158A  2651  120A  118A  	fcall	_strin
  1927  0170                     l1518:
  1928                           
  1929                           ;coffeemaker.c: 291:             making(k);
  1930  0170  1283               	bcf	3,5	;RP0=0, select bank0
  1931  0171  1303               	bcf	3,6	;RP1=0, select bank0
  1932  0172  082B               	movf	middle@k,w
  1933  0173  120A  118A  22EC  120A  118A  	fcall	_making
  1934  0178                     l1520:
  1935                           
  1936                           ;coffeemaker.c: 292:             instruct(0x01);
  1937  0178  3001               	movlw	1
  1938  0179  120A  158A  2606  120A  118A  	fcall	_instruct
  1939  017E                     l1522:
  1940                           
  1941                           ;coffeemaker.c: 293:             instruct(0x80);
  1942  017E  3080               	movlw	128
  1943  017F  120A  158A  2606  120A  118A  	fcall	_instruct
  1944  0184                     l1524:
  1945                           
  1946                           ;coffeemaker.c: 294:             strin(" want to save ?",15);
  1947  0184  3011               	movlw	(low ((STR_3-__stringbase)| (0+32768)))& (0+255)
  1948  0185  00F4               	movwf	strin@stri
  1949  0186  3080               	movlw	128
  1950  0187  00F5               	movwf	strin@stri+1
  1951  0188  300F               	movlw	15
  1952  0189  00F6               	movwf	strin@n
  1953  018A  3000               	movlw	0
  1954  018B  00F7               	movwf	strin@n+1
  1955  018C  120A  158A  2651  120A  118A  	fcall	_strin
  1956                           
  1957                           ;coffeemaker.c: 295:             instruct(0xC0);
  1958  0191  30C0               	movlw	192
  1959  0192  120A  158A  2606  120A  118A  	fcall	_instruct
  1960  0197                     l1526:
  1961                           
  1962                           ;coffeemaker.c: 296:             strin("1:YES 2:NO :",12);
  1963  0197  307A               	movlw	(low ((STR_4-__stringbase)| (0+32768)))& (0+255)
  1964  0198  00F4               	movwf	strin@stri
  1965  0199  3080               	movlw	128
  1966  019A  00F5               	movwf	strin@stri+1
  1967  019B  300C               	movlw	12
  1968  019C  00F6               	movwf	strin@n
  1969  019D  3000               	movlw	0
  1970  019E  00F7               	movwf	strin@n+1
  1971  019F  120A  158A  2651  120A  118A  	fcall	_strin
  1972  01A4                     l1528:
  1973                           
  1974                           ;coffeemaker.c: 297:             x[0] = keypad();
  1975  01A4  120A  158A  271D  120A  118A  	fcall	_keypad
  1976  01A9  00FD               	movwf	??_middle
  1977  01AA  087D               	movf	??_middle,w
  1978  01AB  1283               	bcf	3,5	;RP0=0, select bank0
  1979  01AC  1303               	bcf	3,6	;RP1=0, select bank0
  1980  01AD  00AA               	movwf	middle@x
  1981                           
  1982                           ;coffeemaker.c: 298:             int d = compare(x,"1",1);
  1983  01AE  30DC               	movlw	(low ((STR_5-__stringbase)| (0+32768)))& (0+255)
  1984  01AF  00F4               	movwf	compare@str2
  1985  01B0  3080               	movlw	128
  1986  01B1  00F5               	movwf	compare@str2+1
  1987  01B2  3001               	movlw	1
  1988  01B3  00F6               	movwf	compare@len
  1989  01B4  3000               	movlw	0
  1990  01B5  00F7               	movwf	compare@len+1
  1991  01B6  302A               	movlw	(low (middle@x| 0))& (0+255)
  1992  01B7  120A  158A  2685  120A  118A  	fcall	_compare
  1993  01BC  0875               	movf	?_compare+1,w
  1994  01BD  1283               	bcf	3,5	;RP0=0, select bank0
  1995  01BE  1303               	bcf	3,6	;RP1=0, select bank0
  1996  01BF  00A4               	movwf	middle@d+1
  1997  01C0  0874               	movf	?_compare,w
  1998  01C1  00A3               	movwf	middle@d
  1999  01C2                     l1530:
  2000                           
  2001                           ;coffeemaker.c: 299:             if( d == 0)
  2002  01C2  0823               	movf	middle@d,w
  2003  01C3  0424               	iorwf	middle@d+1,w
  2004  01C4  1D03               	btfss	3,2
  2005  01C5  29C7               	goto	u1041
  2006  01C6  29C8               	goto	u1040
  2007  01C7                     u1041:
  2008  01C7  2AEA               	goto	l159
  2009  01C8                     u1040:
  2010  01C8                     l1532:
  2011                           
  2012                           ;coffeemaker.c: 300:             {;coffeemaker.c: 301:                 str = '1';
  2013  01C8  3031               	movlw	49
  2014  01C9  00FD               	movwf	??_middle
  2015  01CA  087D               	movf	??_middle,w
  2016  01CB  00A9               	movwf	middle@str
  2017  01CC  2AEA               	goto	l159
  2018  01CD                     l1534:
  2019  01CD  3032               	movlw	50
  2020  01CE  062B               	xorwf	middle@k,w
  2021  01CF  1D03               	btfss	3,2
  2022  01D0  29D2               	goto	u1051
  2023  01D1  29D3               	goto	u1050
  2024  01D2                     u1051:
  2025  01D2  2A5C               	goto	l1558
  2026  01D3                     u1050:
  2027  01D3                     l1536:
  2028                           
  2029                           ;coffeemaker.c: 307:         {;coffeemaker.c: 308:             instruct(0x01);
  2030  01D3  3001               	movlw	1
  2031  01D4  120A  158A  2606  120A  118A  	fcall	_instruct
  2032                           
  2033                           ;coffeemaker.c: 309:             instruct(0x80);
  2034  01D9  3080               	movlw	128
  2035  01DA  120A  158A  2606  120A  118A  	fcall	_instruct
  2036  01DF                     l1538:
  2037                           
  2038                           ;coffeemaker.c: 310:             strin(" PLEASE WAIT...",15);
  2039  01DF  3001               	movlw	(low ((STR_1-__stringbase)| (0+32768)))& (0+255)
  2040  01E0  00F4               	movwf	strin@stri
  2041  01E1  3080               	movlw	128
  2042  01E2  00F5               	movwf	strin@stri+1
  2043  01E3  300F               	movlw	15
  2044  01E4  00F6               	movwf	strin@n
  2045  01E5  3000               	movlw	0
  2046  01E6  00F7               	movwf	strin@n+1
  2047  01E7  120A  158A  2651  120A  118A  	fcall	_strin
  2048  01EC                     l1540:
  2049                           
  2050                           ;coffeemaker.c: 311:             instruct(0xC0);
  2051  01EC  30C0               	movlw	192
  2052  01ED  120A  158A  2606  120A  118A  	fcall	_instruct
  2053                           
  2054                           ;coffeemaker.c: 312:             strin("FOR YOUR TEA",12);
  2055  01F2  3087               	movlw	(low ((STR_7-__stringbase)| (0+32768)))& (0+255)
  2056  01F3  00F4               	movwf	strin@stri
  2057  01F4  3080               	movlw	128
  2058  01F5  00F5               	movwf	strin@stri+1
  2059  01F6  300C               	movlw	12
  2060  01F7  00F6               	movwf	strin@n
  2061  01F8  3000               	movlw	0
  2062  01F9  00F7               	movwf	strin@n+1
  2063  01FA  120A  158A  2651  120A  118A  	fcall	_strin
  2064  01FF                     l1542:
  2065                           
  2066                           ;coffeemaker.c: 313:             making(k);
  2067  01FF  1283               	bcf	3,5	;RP0=0, select bank0
  2068  0200  1303               	bcf	3,6	;RP1=0, select bank0
  2069  0201  082B               	movf	middle@k,w
  2070  0202  120A  118A  22EC  120A  118A  	fcall	_making
  2071  0207                     l1544:
  2072                           
  2073                           ;coffeemaker.c: 314:             instruct(0x01);
  2074  0207  3001               	movlw	1
  2075  0208  120A  158A  2606  120A  118A  	fcall	_instruct
  2076  020D                     l1546:
  2077                           
  2078                           ;coffeemaker.c: 315:             instruct(0x80);
  2079  020D  3080               	movlw	128
  2080  020E  120A  158A  2606  120A  118A  	fcall	_instruct
  2081  0213                     l1548:
  2082                           
  2083                           ;coffeemaker.c: 316:             strin(" want to save ?",15);
  2084  0213  3011               	movlw	(low ((STR_3-__stringbase)| (0+32768)))& (0+255)
  2085  0214  00F4               	movwf	strin@stri
  2086  0215  3080               	movlw	128
  2087  0216  00F5               	movwf	strin@stri+1
  2088  0217  300F               	movlw	15
  2089  0218  00F6               	movwf	strin@n
  2090  0219  3000               	movlw	0
  2091  021A  00F7               	movwf	strin@n+1
  2092  021B  120A  158A  2651  120A  118A  	fcall	_strin
  2093                           
  2094                           ;coffeemaker.c: 317:             instruct(0xC0);
  2095  0220  30C0               	movlw	192
  2096  0221  120A  158A  2606  120A  118A  	fcall	_instruct
  2097  0226                     l1550:
  2098                           
  2099                           ;coffeemaker.c: 318:             strin("1:YES 2:NO :",12);
  2100  0226  307A               	movlw	(low ((STR_4-__stringbase)| (0+32768)))& (0+255)
  2101  0227  00F4               	movwf	strin@stri
  2102  0228  3080               	movlw	128
  2103  0229  00F5               	movwf	strin@stri+1
  2104  022A  300C               	movlw	12
  2105  022B  00F6               	movwf	strin@n
  2106  022C  3000               	movlw	0
  2107  022D  00F7               	movwf	strin@n+1
  2108  022E  120A  158A  2651  120A  118A  	fcall	_strin
  2109  0233                     l1552:
  2110                           
  2111                           ;coffeemaker.c: 319:             x[0] = keypad();
  2112  0233  120A  158A  271D  120A  118A  	fcall	_keypad
  2113  0238  00FD               	movwf	??_middle
  2114  0239  087D               	movf	??_middle,w
  2115  023A  1283               	bcf	3,5	;RP0=0, select bank0
  2116  023B  1303               	bcf	3,6	;RP1=0, select bank0
  2117  023C  00AA               	movwf	middle@x
  2118                           
  2119                           ;coffeemaker.c: 320:             int d = compare(x,"1",1);
  2120  023D  30DC               	movlw	(low ((STR_5-__stringbase)| (0+32768)))& (0+255)
  2121  023E  00F4               	movwf	compare@str2
  2122  023F  3080               	movlw	128
  2123  0240  00F5               	movwf	compare@str2+1
  2124  0241  3001               	movlw	1
  2125  0242  00F6               	movwf	compare@len
  2126  0243  3000               	movlw	0
  2127  0244  00F7               	movwf	compare@len+1
  2128  0245  302A               	movlw	(low (middle@x| 0))& (0+255)
  2129  0246  120A  158A  2685  120A  118A  	fcall	_compare
  2130  024B  0875               	movf	?_compare+1,w
  2131  024C  1283               	bcf	3,5	;RP0=0, select bank0
  2132  024D  1303               	bcf	3,6	;RP1=0, select bank0
  2133  024E  00A6               	movwf	middle@d_129+1
  2134  024F  0874               	movf	?_compare,w
  2135  0250  00A5               	movwf	middle@d_129
  2136  0251                     l1554:
  2137                           
  2138                           ;coffeemaker.c: 321:             if( d == 0)
  2139  0251  0825               	movf	middle@d_129,w
  2140  0252  0426               	iorwf	middle@d_129+1,w
  2141  0253  1D03               	btfss	3,2
  2142  0254  2A56               	goto	u1061
  2143  0255  2A57               	goto	u1060
  2144  0256                     u1061:
  2145  0256  2AEA               	goto	l159
  2146  0257                     u1060:
  2147  0257                     l1556:
  2148                           
  2149                           ;coffeemaker.c: 322:             {;coffeemaker.c: 323:                 str = '2';
  2150  0257  3032               	movlw	50
  2151  0258  00FD               	movwf	??_middle
  2152  0259  087D               	movf	??_middle,w
  2153  025A  00A9               	movwf	middle@str
  2154  025B  2AEA               	goto	l159
  2155  025C                     l1558:
  2156  025C  3033               	movlw	51
  2157  025D  062B               	xorwf	middle@k,w
  2158  025E  1D03               	btfss	3,2
  2159  025F  2A61               	goto	u1071
  2160  0260  2A62               	goto	u1070
  2161  0261                     u1071:
  2162  0261  2AEA               	goto	l159
  2163  0262                     u1070:
  2164  0262                     l1560:
  2165                           
  2166                           ;coffeemaker.c: 328:         {;coffeemaker.c: 329:             instruct(0x01);
  2167  0262  3001               	movlw	1
  2168  0263  120A  158A  2606  120A  118A  	fcall	_instruct
  2169                           
  2170                           ;coffeemaker.c: 330:             instruct(0x80);
  2171  0268  3080               	movlw	128
  2172  0269  120A  158A  2606  120A  118A  	fcall	_instruct
  2173  026E                     l1562:
  2174                           
  2175                           ;coffeemaker.c: 331:             strin(" PLEASE WAIT...",15);
  2176  026E  3001               	movlw	(low ((STR_1-__stringbase)| (0+32768)))& (0+255)
  2177  026F  00F4               	movwf	strin@stri
  2178  0270  3080               	movlw	128
  2179  0271  00F5               	movwf	strin@stri+1
  2180  0272  300F               	movlw	15
  2181  0273  00F6               	movwf	strin@n
  2182  0274  3000               	movlw	0
  2183  0275  00F7               	movwf	strin@n+1
  2184  0276  120A  158A  2651  120A  118A  	fcall	_strin
  2185  027B                     l1564:
  2186                           
  2187                           ;coffeemaker.c: 332:             instruct(0xC0);
  2188  027B  30C0               	movlw	192
  2189  027C  120A  158A  2606  120A  118A  	fcall	_instruct
  2190                           
  2191                           ;coffeemaker.c: 333:             strin("FOR YOUR MILK",13);
  2192  0281  3051               	movlw	(low ((STR_12-__stringbase)| (0+32768)))& (0+255)
  2193  0282  00F4               	movwf	strin@stri
  2194  0283  3080               	movlw	128
  2195  0284  00F5               	movwf	strin@stri+1
  2196  0285  300D               	movlw	13
  2197  0286  00F6               	movwf	strin@n
  2198  0287  3000               	movlw	0
  2199  0288  00F7               	movwf	strin@n+1
  2200  0289  120A  158A  2651  120A  118A  	fcall	_strin
  2201  028E                     l1566:
  2202                           
  2203                           ;coffeemaker.c: 334:             making(k);
  2204  028E  1283               	bcf	3,5	;RP0=0, select bank0
  2205  028F  1303               	bcf	3,6	;RP1=0, select bank0
  2206  0290  082B               	movf	middle@k,w
  2207  0291  120A  118A  22EC  120A  118A  	fcall	_making
  2208  0296                     l1568:
  2209                           
  2210                           ;coffeemaker.c: 335:             instruct(0x01);
  2211  0296  3001               	movlw	1
  2212  0297  120A  158A  2606  120A  118A  	fcall	_instruct
  2213  029C                     l1570:
  2214                           
  2215                           ;coffeemaker.c: 336:             instruct(0x80);
  2216  029C  3080               	movlw	128
  2217  029D  120A  158A  2606  120A  118A  	fcall	_instruct
  2218  02A2                     l1572:
  2219                           
  2220                           ;coffeemaker.c: 337:             strin(" want to save ?",15);
  2221  02A2  3011               	movlw	(low ((STR_3-__stringbase)| (0+32768)))& (0+255)
  2222  02A3  00F4               	movwf	strin@stri
  2223  02A4  3080               	movlw	128
  2224  02A5  00F5               	movwf	strin@stri+1
  2225  02A6  300F               	movlw	15
  2226  02A7  00F6               	movwf	strin@n
  2227  02A8  3000               	movlw	0
  2228  02A9  00F7               	movwf	strin@n+1
  2229  02AA  120A  158A  2651  120A  118A  	fcall	_strin
  2230                           
  2231                           ;coffeemaker.c: 338:             instruct(0xC0);
  2232  02AF  30C0               	movlw	192
  2233  02B0  120A  158A  2606  120A  118A  	fcall	_instruct
  2234  02B5                     l1574:
  2235                           
  2236                           ;coffeemaker.c: 339:             strin("1:YES 2:NO :",12);
  2237  02B5  307A               	movlw	(low ((STR_4-__stringbase)| (0+32768)))& (0+255)
  2238  02B6  00F4               	movwf	strin@stri
  2239  02B7  3080               	movlw	128
  2240  02B8  00F5               	movwf	strin@stri+1
  2241  02B9  300C               	movlw	12
  2242  02BA  00F6               	movwf	strin@n
  2243  02BB  3000               	movlw	0
  2244  02BC  00F7               	movwf	strin@n+1
  2245  02BD  120A  158A  2651  120A  118A  	fcall	_strin
  2246  02C2                     l1576:
  2247                           
  2248                           ;coffeemaker.c: 340:             x[0] = keypad();
  2249  02C2  120A  158A  271D  120A  118A  	fcall	_keypad
  2250  02C7  00FD               	movwf	??_middle
  2251  02C8  087D               	movf	??_middle,w
  2252  02C9  1283               	bcf	3,5	;RP0=0, select bank0
  2253  02CA  1303               	bcf	3,6	;RP1=0, select bank0
  2254  02CB  00AA               	movwf	middle@x
  2255                           
  2256                           ;coffeemaker.c: 341:             int d = compare(x,"1",1);
  2257  02CC  30DC               	movlw	(low ((STR_5-__stringbase)| (0+32768)))& (0+255)
  2258  02CD  00F4               	movwf	compare@str2
  2259  02CE  3080               	movlw	128
  2260  02CF  00F5               	movwf	compare@str2+1
  2261  02D0  3001               	movlw	1
  2262  02D1  00F6               	movwf	compare@len
  2263  02D2  3000               	movlw	0
  2264  02D3  00F7               	movwf	compare@len+1
  2265  02D4  302A               	movlw	(low (middle@x| 0))& (0+255)
  2266  02D5  120A  158A  2685  120A  118A  	fcall	_compare
  2267  02DA  0875               	movf	?_compare+1,w
  2268  02DB  1283               	bcf	3,5	;RP0=0, select bank0
  2269  02DC  1303               	bcf	3,6	;RP1=0, select bank0
  2270  02DD  00A8               	movwf	middle@d_135+1
  2271  02DE  0874               	movf	?_compare,w
  2272  02DF  00A7               	movwf	middle@d_135
  2273  02E0                     l1578:
  2274                           
  2275                           ;coffeemaker.c: 342:             if( d == 0)
  2276  02E0  0827               	movf	middle@d_135,w
  2277  02E1  0428               	iorwf	middle@d_135+1,w
  2278  02E2  1D03               	btfss	3,2
  2279  02E3  2AE5               	goto	u1081
  2280  02E4  2AE6               	goto	u1080
  2281  02E5                     u1081:
  2282  02E5  2AEA               	goto	l159
  2283  02E6                     u1080:
  2284  02E6                     l1580:
  2285                           
  2286                           ;coffeemaker.c: 343:             {;coffeemaker.c: 344:                 str = '3';
  2287  02E6  3033               	movlw	51
  2288  02E7  00FD               	movwf	??_middle
  2289  02E8  087D               	movf	??_middle,w
  2290  02E9  00A9               	movwf	middle@str
  2291  02EA                     l159:
  2292                           
  2293                           ;coffeemaker.c: 348:     return str;
  2294  02EA  0829               	movf	middle@str,w
  2295  02EB                     l165:
  2296  02EB  0008               	return
  2297  02EC                     __end_of_middle:
  2298                           
  2299                           	psect	text2
  2300  0E51                     __ptext2:	
  2301 ;; *************** function _strin *****************
  2302 ;; Defined at:
  2303 ;;		line 63 in file "coffeemaker.c"
  2304 ;; Parameters:    Size  Location     Type
  2305 ;;  stri            2    4[COMMON] PTR unsigned char 
  2306 ;;		 -> STR_29(13), STR_28(10), STR_27(16), STR_26(14), 
  2307 ;;		 -> STR_25(16), STR_24(10), STR_23(12), STR_22(10), 
  2308 ;;		 -> STR_21(16), STR_19(12), STR_18(5), STR_17(12), 
  2309 ;;		 -> STR_16(9), main@arr(80), STR_14(13), STR_13(16), 
  2310 ;;		 -> STR_12(14), STR_11(16), STR_9(13), STR_8(16), 
  2311 ;;		 -> STR_7(13), STR_6(16), STR_4(13), STR_3(16), 
  2312 ;;		 -> STR_2(16), STR_1(16), 
  2313 ;;  n               2    6[COMMON] int 
  2314 ;; Auto vars:     Size  Location     Type
  2315 ;;  i               2   11[COMMON] int 
  2316 ;; Return value:  Size  Location     Type
  2317 ;;                  1    wreg      void 
  2318 ;; Registers used:
  2319 ;;		wreg, fsr0l, fsr0h, status,2, status,0, btemp+1, pclath, cstack
  2320 ;; Tracked objects:
  2321 ;;		On entry : 0/0
  2322 ;;		On exit  : 0/0
  2323 ;;		Unchanged: 0/0
  2324 ;; Data sizes:     COMMON   BANK0   BANK1   BANK3   BANK2
  2325 ;;      Params:         4       0       0       0       0
  2326 ;;      Locals:         2       0       0       0       0
  2327 ;;      Temps:          3       0       0       0       0
  2328 ;;      Totals:         9       0       0       0       0
  2329 ;;Total ram usage:        9 bytes
  2330 ;; Hardware stack levels used: 1
  2331 ;; Hardware stack levels required when called: 1
  2332 ;; This function calls:
  2333 ;;		_store
  2334 ;; This function is called by:
  2335 ;;		_middle
  2336 ;;		_main
  2337 ;; This function uses a non-reentrant model
  2338 ;;
  2339                           
  2340                           
  2341                           ;psect for function _strin
  2342  0E51                     _strin:
  2343  0E51                     l1286:	
  2344                           ;incstack = 0
  2345                           ; Regs used in _strin: [wreg-fsr0h+status,2+status,0+btemp+1+pclath+cstack]
  2346                           
  2347                           
  2348                           ;coffeemaker.c: 63: void strin (char *stri,int n);coffeemaker.c: 64: {;coffeemaker.c: 65
      +                          :     int i;;coffeemaker.c: 66:     for (i=0;i<n;i++)
  2349  0E51  01FB               	clrf	strin@i
  2350  0E52  01FC               	clrf	strin@i+1
  2351  0E53  2E76               	goto	l1292
  2352  0E54                     l1288:
  2353                           
  2354                           ;coffeemaker.c: 67:     {;coffeemaker.c: 68:         store(stri[i]);
  2355  0E54  087B               	movf	strin@i,w
  2356  0E55  0774               	addwf	strin@stri,w
  2357  0E56  00F9               	movwf	??_strin+1
  2358  0E57  0875               	movf	strin@stri+1,w
  2359  0E58  00F8               	movwf	??_strin
  2360  0E59  1803               	skipnc
  2361  0E5A  0AF8               	incf	??_strin,f
  2362  0E5B  1FFB               	btfss	strin@i,7
  2363  0E5C  2E5E               	goto	u610
  2364  0E5D  03F8               	decf	??_strin,f
  2365  0E5E                     u610:
  2366  0E5E  0878               	movf	??_strin,w
  2367  0E5F  00FA               	movwf	??_strin+2
  2368  0E60  087A               	movf	??_strin+2,w
  2369  0E61  1283               	bcf	3,5	;RP0=0, select bank0
  2370  0E62  1303               	bcf	3,6	;RP1=0, select bank0
  2371  0E63  00FF               	movwf	btemp+1
  2372  0E64  0879               	movf	??_strin+1,w
  2373  0E65  0084               	movwf	4
  2374  0E66  120A  118A  2003  120A  158A  	fcall	stringtab
  2375  0E6B  120A  118A  20F1  120A  158A  	fcall	_store
  2376  0E70                     l1290:
  2377                           
  2378                           ;coffeemaker.c: 69:     }
  2379  0E70  3001               	movlw	1
  2380  0E71  07FB               	addwf	strin@i,f
  2381  0E72  1803               	skipnc
  2382  0E73  0AFC               	incf	strin@i+1,f
  2383  0E74  3000               	movlw	0
  2384  0E75  07FC               	addwf	strin@i+1,f
  2385  0E76                     l1292:
  2386  0E76  087C               	movf	strin@i+1,w
  2387  0E77  3A80               	xorlw	128
  2388  0E78  00F8               	movwf	??_strin
  2389  0E79  0877               	movf	strin@n+1,w
  2390  0E7A  3A80               	xorlw	128
  2391  0E7B  0278               	subwf	??_strin,w
  2392  0E7C  1D03               	skipz
  2393  0E7D  2E80               	goto	u625
  2394  0E7E  0876               	movf	strin@n,w
  2395  0E7F  027B               	subwf	strin@i,w
  2396  0E80                     u625:
  2397  0E80  1C03               	skipc
  2398  0E81  2E83               	goto	u621
  2399  0E82  2E84               	goto	u620
  2400  0E83                     u621:
  2401  0E83  2E54               	goto	l1288
  2402  0E84                     u620:
  2403  0E84                     l62:
  2404  0E84  0008               	return
  2405  0E85                     __end_of_strin:
  2406                           
  2407                           	psect	text3
  2408  02EC                     __ptext3:	
  2409 ;; *************** function _making *****************
  2410 ;; Defined at:
  2411 ;;		line 81 in file "coffeemaker.c"
  2412 ;; Parameters:    Size  Location     Type
  2413 ;;  t               1    wreg     unsigned char 
  2414 ;; Auto vars:     Size  Location     Type
  2415 ;;  t               1    3[COMMON] unsigned char 
  2416 ;;  j               2    6[COMMON] unsigned int 
  2417 ;;  i               2    4[COMMON] unsigned int 
  2418 ;; Return value:  Size  Location     Type
  2419 ;;                  1    wreg      void 
  2420 ;; Registers used:
  2421 ;;		wreg, status,2, status,0
  2422 ;; Tracked objects:
  2423 ;;		On entry : 0/0
  2424 ;;		On exit  : 0/0
  2425 ;;		Unchanged: 0/0
  2426 ;; Data sizes:     COMMON   BANK0   BANK1   BANK3   BANK2
  2427 ;;      Params:         0       0       0       0       0
  2428 ;;      Locals:         5       0       0       0       0
  2429 ;;      Temps:          3       0       0       0       0
  2430 ;;      Totals:         8       0       0       0       0
  2431 ;;Total ram usage:        8 bytes
  2432 ;; Hardware stack levels used: 1
  2433 ;; This function calls:
  2434 ;;		Nothing
  2435 ;; This function is called by:
  2436 ;;		_middle
  2437 ;;		_main
  2438 ;; This function uses a non-reentrant model
  2439 ;;
  2440                           
  2441                           
  2442                           ;psect for function _making
  2443  02EC                     _making:
  2444                           
  2445                           ;incstack = 0
  2446                           ; Regs used in _making: [wreg+status,2+status,0]
  2447                           ;making@t stored from wreg
  2448  02EC  00F3               	movwf	making@t
  2449  02ED                     l1294:
  2450                           
  2451                           ;coffeemaker.c: 81: void making(char t);coffeemaker.c: 82: {;coffeemaker.c: 83:     unsi
      +                          gned int i;;coffeemaker.c: 84:     unsigned int j;;coffeemaker.c: 85:     if(t =='1')
  2452  02ED  3031               	movlw	49
  2453  02EE  0673               	xorwf	making@t,w
  2454  02EF  1D03               	btfss	3,2
  2455  02F0  2AF2               	goto	u631
  2456  02F1  2AF3               	goto	u630
  2457  02F2                     u631:
  2458  02F2  2C12               	goto	l1368
  2459  02F3                     u630:
  2460  02F3                     l1296:
  2461                           
  2462                           ;coffeemaker.c: 86:    {;coffeemaker.c: 87:         RD4 = 1;
  2463  02F3  1283               	bcf	3,5	;RP0=0, select bank0
  2464  02F4  1303               	bcf	3,6	;RP1=0, select bank0
  2465  02F5  1608               	bsf	8,4	;volatile
  2466  02F6                     l1298:
  2467                           
  2468                           ;coffeemaker.c: 88:         for(i=0;i<50;i++)
  2469  02F6  01F4               	clrf	making@i
  2470  02F7  01F5               	clrf	making@i+1
  2471  02F8                     l69:
  2472                           
  2473                           ;coffeemaker.c: 89:         {;coffeemaker.c: 90:            RA0 = 1;
  2474  02F8  1283               	bcf	3,5	;RP0=0, select bank0
  2475  02F9  1303               	bcf	3,6	;RP1=0, select bank0
  2476  02FA  1405               	bsf	5,0	;volatile
  2477  02FB                     l1304:
  2478                           
  2479                           ;coffeemaker.c: 91:           _delay((unsigned long)((800)*(1000000/4000000.0)));
  2480  02FB  3042               	movlw	66
  2481  02FC  00F0               	movwf	??_making
  2482  02FD                     u1267:
  2483  02FD  0BF0               	decfsz	??_making,f
  2484  02FE  2AFD               	goto	u1267
  2485  02FF  0000               	nop
  2486  0300                     l1306:
  2487                           
  2488                           ;coffeemaker.c: 92:            RA0 = 0;
  2489  0300  1283               	bcf	3,5	;RP0=0, select bank0
  2490  0301  1303               	bcf	3,6	;RP1=0, select bank0
  2491  0302  1005               	bcf	5,0	;volatile
  2492                           
  2493                           ;coffeemaker.c: 93:           _delay((unsigned long)((19200)*(1000000/4000000.0)));
  2494  0303  3007               	movlw	7
  2495  0304  00F1               	movwf	??_making+1
  2496  0305  303A               	movlw	58
  2497  0306  00F0               	movwf	??_making
  2498  0307                     u1277:
  2499  0307  0BF0               	decfsz	??_making,f
  2500  0308  2B07               	goto	u1277
  2501  0309  0BF1               	decfsz	??_making+1,f
  2502  030A  2B07               	goto	u1277
  2503  030B  0000               	nop
  2504                           
  2505                           ;coffeemaker.c: 94:         }
  2506  030C  3001               	movlw	1
  2507  030D  07F4               	addwf	making@i,f
  2508  030E  1803               	skipnc
  2509  030F  0AF5               	incf	making@i+1,f
  2510  0310  3000               	movlw	0
  2511  0311  07F5               	addwf	making@i+1,f
  2512  0312  3000               	movlw	0
  2513  0313  0275               	subwf	making@i+1,w
  2514  0314  3032               	movlw	50
  2515  0315  1903               	skipnz
  2516  0316  0274               	subwf	making@i,w
  2517  0317  1C03               	skipc
  2518  0318  2B1A               	goto	u641
  2519  0319  2B1B               	goto	u640
  2520  031A                     u641:
  2521  031A  2AF8               	goto	l69
  2522  031B                     u640:
  2523  031B                     l1308:
  2524                           
  2525                           ;coffeemaker.c: 95:         _delay((unsigned long)((2000)*(1000000/4000.0)));
  2526  031B  3003               	movlw	3
  2527  031C  00F2               	movwf	??_making+2
  2528  031D  308A               	movlw	138
  2529  031E  00F1               	movwf	??_making+1
  2530  031F  3055               	movlw	85
  2531  0320  00F0               	movwf	??_making
  2532  0321                     u1287:
  2533  0321  0BF0               	decfsz	??_making,f
  2534  0322  2B21               	goto	u1287
  2535  0323  0BF1               	decfsz	??_making+1,f
  2536  0324  2B21               	goto	u1287
  2537  0325  0BF2               	decfsz	??_making+2,f
  2538  0326  2B21               	goto	u1287
  2539  0327  2B28               	nop2
  2540  0328                     l1310:
  2541                           
  2542                           ;coffeemaker.c: 96:         for(j=0;j<50;j++)
  2543  0328  01F6               	clrf	making@j
  2544  0329  01F7               	clrf	making@j+1
  2545  032A                     l71:
  2546                           
  2547                           ;coffeemaker.c: 97:         {;coffeemaker.c: 98:            RA0 = 1;
  2548  032A  1283               	bcf	3,5	;RP0=0, select bank0
  2549  032B  1303               	bcf	3,6	;RP1=0, select bank0
  2550  032C  1405               	bsf	5,0	;volatile
  2551  032D                     l1316:
  2552                           
  2553                           ;coffeemaker.c: 99:            _delay((unsigned long)((1500)*(1000000/4000000.0)));
  2554  032D  307C               	movlw	124
  2555  032E  00F0               	movwf	??_making
  2556  032F                     u1297:
  2557  032F  0BF0               	decfsz	??_making,f
  2558  0330  2B2F               	goto	u1297
  2559  0331  2B32               	nop2
  2560  0332                     l1318:
  2561                           
  2562                           ;coffeemaker.c: 100:            RA0 = 0;
  2563  0332  1283               	bcf	3,5	;RP0=0, select bank0
  2564  0333  1303               	bcf	3,6	;RP1=0, select bank0
  2565  0334  1005               	bcf	5,0	;volatile
  2566                           
  2567                           ;coffeemaker.c: 101:            _delay((unsigned long)((18500)*(1000000/4000000.0)));
  2568  0335  3006               	movlw	6
  2569  0336  00F1               	movwf	??_making+1
  2570  0337  3000               	movlw	0
  2571  0338  00F0               	movwf	??_making
  2572  0339                     u1307:
  2573  0339  0BF0               	decfsz	??_making,f
  2574  033A  2B39               	goto	u1307
  2575  033B  0BF1               	decfsz	??_making+1,f
  2576  033C  2B39               	goto	u1307
  2577  033D  2B3E               	nop2
  2578                           
  2579                           ;coffeemaker.c: 102:         }
  2580  033E  3001               	movlw	1
  2581  033F  07F6               	addwf	making@j,f
  2582  0340  1803               	skipnc
  2583  0341  0AF7               	incf	making@j+1,f
  2584  0342  3000               	movlw	0
  2585  0343  07F7               	addwf	making@j+1,f
  2586  0344  3000               	movlw	0
  2587  0345  0277               	subwf	making@j+1,w
  2588  0346  3032               	movlw	50
  2589  0347  1903               	skipnz
  2590  0348  0276               	subwf	making@j,w
  2591  0349  1C03               	skipc
  2592  034A  2B4C               	goto	u651
  2593  034B  2B4D               	goto	u650
  2594  034C                     u651:
  2595  034C  2B2A               	goto	l71
  2596  034D                     u650:
  2597  034D                     l1320:
  2598                           
  2599                           ;coffeemaker.c: 103:         for(i=0;i<50;i++)
  2600  034D  01F4               	clrf	making@i
  2601  034E  01F5               	clrf	making@i+1
  2602  034F                     l73:
  2603                           
  2604                           ;coffeemaker.c: 104:         {;coffeemaker.c: 105:            RA2 = 1;
  2605  034F  1283               	bcf	3,5	;RP0=0, select bank0
  2606  0350  1303               	bcf	3,6	;RP1=0, select bank0
  2607  0351  1505               	bsf	5,2	;volatile
  2608  0352                     l1326:
  2609                           
  2610                           ;coffeemaker.c: 106:           _delay((unsigned long)((800)*(1000000/4000000.0)));
  2611  0352  3042               	movlw	66
  2612  0353  00F0               	movwf	??_making
  2613  0354                     u1317:
  2614  0354  0BF0               	decfsz	??_making,f
  2615  0355  2B54               	goto	u1317
  2616  0356  0000               	nop
  2617  0357                     l1328:
  2618                           
  2619                           ;coffeemaker.c: 107:            RA2 = 0;
  2620  0357  1283               	bcf	3,5	;RP0=0, select bank0
  2621  0358  1303               	bcf	3,6	;RP1=0, select bank0
  2622  0359  1105               	bcf	5,2	;volatile
  2623                           
  2624                           ;coffeemaker.c: 108:           _delay((unsigned long)((19200)*(1000000/4000000.0)));
  2625  035A  3007               	movlw	7
  2626  035B  00F1               	movwf	??_making+1
  2627  035C  303A               	movlw	58
  2628  035D  00F0               	movwf	??_making
  2629  035E                     u1327:
  2630  035E  0BF0               	decfsz	??_making,f
  2631  035F  2B5E               	goto	u1327
  2632  0360  0BF1               	decfsz	??_making+1,f
  2633  0361  2B5E               	goto	u1327
  2634  0362  0000               	nop
  2635                           
  2636                           ;coffeemaker.c: 109:         }
  2637  0363  3001               	movlw	1
  2638  0364  07F4               	addwf	making@i,f
  2639  0365  1803               	skipnc
  2640  0366  0AF5               	incf	making@i+1,f
  2641  0367  3000               	movlw	0
  2642  0368  07F5               	addwf	making@i+1,f
  2643  0369  3000               	movlw	0
  2644  036A  0275               	subwf	making@i+1,w
  2645  036B  3032               	movlw	50
  2646  036C  1903               	skipnz
  2647  036D  0274               	subwf	making@i,w
  2648  036E  1C03               	skipc
  2649  036F  2B71               	goto	u661
  2650  0370  2B72               	goto	u660
  2651  0371                     u661:
  2652  0371  2B4F               	goto	l73
  2653  0372                     u660:
  2654  0372                     l1330:
  2655                           
  2656                           ;coffeemaker.c: 110:         _delay((unsigned long)((3000)*(1000000/4000.0)));
  2657  0372  3004               	movlw	4
  2658  0373  00F2               	movwf	??_making+2
  2659  0374  30CF               	movlw	207
  2660  0375  00F1               	movwf	??_making+1
  2661  0376  3001               	movlw	1
  2662  0377  00F0               	movwf	??_making
  2663  0378                     u1337:
  2664  0378  0BF0               	decfsz	??_making,f
  2665  0379  2B78               	goto	u1337
  2666  037A  0BF1               	decfsz	??_making+1,f
  2667  037B  2B78               	goto	u1337
  2668  037C  0BF2               	decfsz	??_making+2,f
  2669  037D  2B78               	goto	u1337
  2670  037E  2B7F               	nop2
  2671  037F                     l1332:
  2672                           
  2673                           ;coffeemaker.c: 111:         for(j=0;j<50;j++)
  2674  037F  01F6               	clrf	making@j
  2675  0380  01F7               	clrf	making@j+1
  2676  0381                     l75:
  2677                           
  2678                           ;coffeemaker.c: 112:         {;coffeemaker.c: 113:            RA2 = 1;
  2679  0381  1283               	bcf	3,5	;RP0=0, select bank0
  2680  0382  1303               	bcf	3,6	;RP1=0, select bank0
  2681  0383  1505               	bsf	5,2	;volatile
  2682  0384                     l1338:
  2683                           
  2684                           ;coffeemaker.c: 114:            _delay((unsigned long)((1500)*(1000000/4000000.0)));
  2685  0384  307C               	movlw	124
  2686  0385  00F0               	movwf	??_making
  2687  0386                     u1347:
  2688  0386  0BF0               	decfsz	??_making,f
  2689  0387  2B86               	goto	u1347
  2690  0388  2B89               	nop2
  2691  0389                     l1340:
  2692                           
  2693                           ;coffeemaker.c: 115:            RA2 = 0;
  2694  0389  1283               	bcf	3,5	;RP0=0, select bank0
  2695  038A  1303               	bcf	3,6	;RP1=0, select bank0
  2696  038B  1105               	bcf	5,2	;volatile
  2697                           
  2698                           ;coffeemaker.c: 116:            _delay((unsigned long)((18500)*(1000000/4000000.0)));
  2699  038C  3006               	movlw	6
  2700  038D  00F1               	movwf	??_making+1
  2701  038E  3000               	movlw	0
  2702  038F  00F0               	movwf	??_making
  2703  0390                     u1357:
  2704  0390  0BF0               	decfsz	??_making,f
  2705  0391  2B90               	goto	u1357
  2706  0392  0BF1               	decfsz	??_making+1,f
  2707  0393  2B90               	goto	u1357
  2708  0394  2B95               	nop2
  2709                           
  2710                           ;coffeemaker.c: 117:         }
  2711  0395  3001               	movlw	1
  2712  0396  07F6               	addwf	making@j,f
  2713  0397  1803               	skipnc
  2714  0398  0AF7               	incf	making@j+1,f
  2715  0399  3000               	movlw	0
  2716  039A  07F7               	addwf	making@j+1,f
  2717  039B  3000               	movlw	0
  2718  039C  0277               	subwf	making@j+1,w
  2719  039D  3032               	movlw	50
  2720  039E  1903               	skipnz
  2721  039F  0276               	subwf	making@j,w
  2722  03A0  1C03               	skipc
  2723  03A1  2BA3               	goto	u671
  2724  03A2  2BA4               	goto	u670
  2725  03A3                     u671:
  2726  03A3  2B81               	goto	l75
  2727  03A4                     u670:
  2728  03A4                     l76:
  2729                           
  2730                           ;coffeemaker.c: 118:         RA5=1;
  2731  03A4  1283               	bcf	3,5	;RP0=0, select bank0
  2732  03A5  1303               	bcf	3,6	;RP1=0, select bank0
  2733  03A6  1685               	bsf	5,5	;volatile
  2734  03A7                     l1342:
  2735                           
  2736                           ;coffeemaker.c: 119:         _delay((unsigned long)((2000)*(1000000/4000.0)));
  2737  03A7  3003               	movlw	3
  2738  03A8  00F2               	movwf	??_making+2
  2739  03A9  308A               	movlw	138
  2740  03AA  00F1               	movwf	??_making+1
  2741  03AB  3055               	movlw	85
  2742  03AC  00F0               	movwf	??_making
  2743  03AD                     u1367:
  2744  03AD  0BF0               	decfsz	??_making,f
  2745  03AE  2BAD               	goto	u1367
  2746  03AF  0BF1               	decfsz	??_making+1,f
  2747  03B0  2BAD               	goto	u1367
  2748  03B1  0BF2               	decfsz	??_making+2,f
  2749  03B2  2BAD               	goto	u1367
  2750  03B3  2BB4               	nop2
  2751  03B4                     l1344:
  2752                           
  2753                           ;coffeemaker.c: 120:         RA5 =0;
  2754  03B4  1283               	bcf	3,5	;RP0=0, select bank0
  2755  03B5  1303               	bcf	3,6	;RP1=0, select bank0
  2756  03B6  1285               	bcf	5,5	;volatile
  2757  03B7                     l1346:
  2758                           
  2759                           ;coffeemaker.c: 121:         for(i=0;i<50;i++)
  2760  03B7  01F4               	clrf	making@i
  2761  03B8  01F5               	clrf	making@i+1
  2762  03B9                     l77:
  2763                           
  2764                           ;coffeemaker.c: 122:         {;coffeemaker.c: 123:           RA3 = 1;
  2765  03B9  1283               	bcf	3,5	;RP0=0, select bank0
  2766  03BA  1303               	bcf	3,6	;RP1=0, select bank0
  2767  03BB  1585               	bsf	5,3	;volatile
  2768  03BC                     l1352:
  2769                           
  2770                           ;coffeemaker.c: 124:           _delay((unsigned long)((800)*(1000000/4000000.0)));
  2771  03BC  3042               	movlw	66
  2772  03BD  00F0               	movwf	??_making
  2773  03BE                     u1377:
  2774  03BE  0BF0               	decfsz	??_making,f
  2775  03BF  2BBE               	goto	u1377
  2776  03C0  0000               	nop
  2777  03C1                     l1354:
  2778                           
  2779                           ;coffeemaker.c: 125:           RA3 = 0;
  2780  03C1  1283               	bcf	3,5	;RP0=0, select bank0
  2781  03C2  1303               	bcf	3,6	;RP1=0, select bank0
  2782  03C3  1185               	bcf	5,3	;volatile
  2783                           
  2784                           ;coffeemaker.c: 126:           _delay((unsigned long)((19200)*(1000000/4000000.0)));
  2785  03C4  3007               	movlw	7
  2786  03C5  00F1               	movwf	??_making+1
  2787  03C6  303A               	movlw	58
  2788  03C7  00F0               	movwf	??_making
  2789  03C8                     u1387:
  2790  03C8  0BF0               	decfsz	??_making,f
  2791  03C9  2BC8               	goto	u1387
  2792  03CA  0BF1               	decfsz	??_making+1,f
  2793  03CB  2BC8               	goto	u1387
  2794  03CC  0000               	nop
  2795                           
  2796                           ;coffeemaker.c: 127:         }
  2797  03CD  3001               	movlw	1
  2798  03CE  07F4               	addwf	making@i,f
  2799  03CF  1803               	skipnc
  2800  03D0  0AF5               	incf	making@i+1,f
  2801  03D1  3000               	movlw	0
  2802  03D2  07F5               	addwf	making@i+1,f
  2803  03D3  3000               	movlw	0
  2804  03D4  0275               	subwf	making@i+1,w
  2805  03D5  3032               	movlw	50
  2806  03D6  1903               	skipnz
  2807  03D7  0274               	subwf	making@i,w
  2808  03D8  1C03               	skipc
  2809  03D9  2BDB               	goto	u681
  2810  03DA  2BDC               	goto	u680
  2811  03DB                     u681:
  2812  03DB  2BB9               	goto	l77
  2813  03DC                     u680:
  2814  03DC                     l1356:
  2815                           
  2816                           ;coffeemaker.c: 128:         _delay((unsigned long)((5000)*(1000000/4000.0)));
  2817  03DC  3007               	movlw	7
  2818  03DD  00F2               	movwf	??_making+2
  2819  03DE  3058               	movlw	88
  2820  03DF  00F1               	movwf	??_making+1
  2821  03E0  3059               	movlw	89
  2822  03E1  00F0               	movwf	??_making
  2823  03E2                     u1397:
  2824  03E2  0BF0               	decfsz	??_making,f
  2825  03E3  2BE2               	goto	u1397
  2826  03E4  0BF1               	decfsz	??_making+1,f
  2827  03E5  2BE2               	goto	u1397
  2828  03E6  0BF2               	decfsz	??_making+2,f
  2829  03E7  2BE2               	goto	u1397
  2830  03E8  2BE9               	nop2
  2831  03E9                     l1358:
  2832                           
  2833                           ;coffeemaker.c: 129:         for(j=0;j<50;j++)
  2834  03E9  01F6               	clrf	making@j
  2835  03EA  01F7               	clrf	making@j+1
  2836  03EB                     l79:
  2837                           
  2838                           ;coffeemaker.c: 130:         {;coffeemaker.c: 131:            RA3 = 1;
  2839  03EB  1283               	bcf	3,5	;RP0=0, select bank0
  2840  03EC  1303               	bcf	3,6	;RP1=0, select bank0
  2841  03ED  1585               	bsf	5,3	;volatile
  2842  03EE                     l1364:
  2843                           
  2844                           ;coffeemaker.c: 132:            _delay((unsigned long)((1500)*(1000000/4000000.0)));
  2845  03EE  307C               	movlw	124
  2846  03EF  00F0               	movwf	??_making
  2847  03F0                     u1407:
  2848  03F0  0BF0               	decfsz	??_making,f
  2849  03F1  2BF0               	goto	u1407
  2850  03F2  2BF3               	nop2
  2851  03F3                     l1366:
  2852                           
  2853                           ;coffeemaker.c: 133:            RA3 = 0;
  2854  03F3  1283               	bcf	3,5	;RP0=0, select bank0
  2855  03F4  1303               	bcf	3,6	;RP1=0, select bank0
  2856  03F5  1185               	bcf	5,3	;volatile
  2857                           
  2858                           ;coffeemaker.c: 134:            _delay((unsigned long)((18500)*(1000000/4000000.0)));
  2859  03F6  3006               	movlw	6
  2860  03F7  00F1               	movwf	??_making+1
  2861  03F8  3000               	movlw	0
  2862  03F9  00F0               	movwf	??_making
  2863  03FA                     u1417:
  2864  03FA  0BF0               	decfsz	??_making,f
  2865  03FB  2BFA               	goto	u1417
  2866  03FC  0BF1               	decfsz	??_making+1,f
  2867  03FD  2BFA               	goto	u1417
  2868  03FE  2BFF               	nop2
  2869                           
  2870                           ;coffeemaker.c: 135:         }
  2871  03FF  3001               	movlw	1
  2872  0400  07F6               	addwf	making@j,f
  2873  0401  1803               	skipnc
  2874  0402  0AF7               	incf	making@j+1,f
  2875  0403  3000               	movlw	0
  2876  0404  07F7               	addwf	making@j+1,f
  2877  0405  3000               	movlw	0
  2878  0406  0277               	subwf	making@j+1,w
  2879  0407  3032               	movlw	50
  2880  0408  1903               	skipnz
  2881  0409  0276               	subwf	making@j,w
  2882  040A  1C03               	skipc
  2883  040B  2C0D               	goto	u691
  2884  040C  2C0E               	goto	u690
  2885  040D                     u691:
  2886  040D  2BEB               	goto	l79
  2887  040E                     u690:
  2888  040E                     l80:
  2889                           
  2890                           ;coffeemaker.c: 136:         RD4 = 0;
  2891  040E  1283               	bcf	3,5	;RP0=0, select bank0
  2892  040F  1303               	bcf	3,6	;RP1=0, select bank0
  2893  0410  1208               	bcf	8,4	;volatile
  2894                           
  2895                           ;coffeemaker.c: 139:    }
  2896  0411  2CD9               	goto	l93
  2897  0412                     l1368:
  2898  0412  3032               	movlw	50
  2899  0413  0673               	xorwf	making@t,w
  2900  0414  1D03               	btfss	3,2
  2901  0415  2C17               	goto	u701
  2902  0416  2C18               	goto	u700
  2903  0417                     u701:
  2904  0417  2C76               	goto	l1394
  2905  0418                     u700:
  2906  0418                     l1370:
  2907                           
  2908                           ;coffeemaker.c: 141:    {;coffeemaker.c: 142:        RD5 = 1;
  2909  0418  1283               	bcf	3,5	;RP0=0, select bank0
  2910  0419  1303               	bcf	3,6	;RP1=0, select bank0
  2911  041A  1688               	bsf	8,5	;volatile
  2912  041B                     l1372:
  2913                           
  2914                           ;coffeemaker.c: 143:         for(i=0;i<50;i++)
  2915  041B  01F4               	clrf	making@i
  2916  041C  01F5               	clrf	making@i+1
  2917  041D                     l83:
  2918                           
  2919                           ;coffeemaker.c: 144:         {;coffeemaker.c: 145:            RA1 = 1;
  2920  041D  1283               	bcf	3,5	;RP0=0, select bank0
  2921  041E  1303               	bcf	3,6	;RP1=0, select bank0
  2922  041F  1485               	bsf	5,1	;volatile
  2923  0420                     l1378:
  2924                           
  2925                           ;coffeemaker.c: 146:           _delay((unsigned long)((800)*(1000000/4000000.0)));
  2926  0420  3042               	movlw	66
  2927  0421  00F0               	movwf	??_making
  2928  0422                     u1427:
  2929  0422  0BF0               	decfsz	??_making,f
  2930  0423  2C22               	goto	u1427
  2931  0424  0000               	nop
  2932  0425                     l1380:
  2933                           
  2934                           ;coffeemaker.c: 147:            RA1 = 0;
  2935  0425  1283               	bcf	3,5	;RP0=0, select bank0
  2936  0426  1303               	bcf	3,6	;RP1=0, select bank0
  2937  0427  1085               	bcf	5,1	;volatile
  2938                           
  2939                           ;coffeemaker.c: 148:           _delay((unsigned long)((19200)*(1000000/4000000.0)));
  2940  0428  3007               	movlw	7
  2941  0429  00F1               	movwf	??_making+1
  2942  042A  303A               	movlw	58
  2943  042B  00F0               	movwf	??_making
  2944  042C                     u1437:
  2945  042C  0BF0               	decfsz	??_making,f
  2946  042D  2C2C               	goto	u1437
  2947  042E  0BF1               	decfsz	??_making+1,f
  2948  042F  2C2C               	goto	u1437
  2949  0430  0000               	nop
  2950                           
  2951                           ;coffeemaker.c: 149:         }
  2952  0431  3001               	movlw	1
  2953  0432  07F4               	addwf	making@i,f
  2954  0433  1803               	skipnc
  2955  0434  0AF5               	incf	making@i+1,f
  2956  0435  3000               	movlw	0
  2957  0436  07F5               	addwf	making@i+1,f
  2958  0437  3000               	movlw	0
  2959  0438  0275               	subwf	making@i+1,w
  2960  0439  3032               	movlw	50
  2961  043A  1903               	skipnz
  2962  043B  0274               	subwf	making@i,w
  2963  043C  1C03               	skipc
  2964  043D  2C3F               	goto	u711
  2965  043E  2C40               	goto	u710
  2966  043F                     u711:
  2967  043F  2C1D               	goto	l83
  2968  0440                     u710:
  2969  0440                     l1382:
  2970                           
  2971                           ;coffeemaker.c: 150:         _delay((unsigned long)((5000)*(1000000/4000.0)));
  2972  0440  3007               	movlw	7
  2973  0441  00F2               	movwf	??_making+2
  2974  0442  3058               	movlw	88
  2975  0443  00F1               	movwf	??_making+1
  2976  0444  3059               	movlw	89
  2977  0445  00F0               	movwf	??_making
  2978  0446                     u1447:
  2979  0446  0BF0               	decfsz	??_making,f
  2980  0447  2C46               	goto	u1447
  2981  0448  0BF1               	decfsz	??_making+1,f
  2982  0449  2C46               	goto	u1447
  2983  044A  0BF2               	decfsz	??_making+2,f
  2984  044B  2C46               	goto	u1447
  2985  044C  2C4D               	nop2
  2986  044D                     l1384:
  2987                           
  2988                           ;coffeemaker.c: 151:         for(j=0;j<50;j++)
  2989  044D  01F6               	clrf	making@j
  2990  044E  01F7               	clrf	making@j+1
  2991  044F                     l85:
  2992                           
  2993                           ;coffeemaker.c: 152:         {;coffeemaker.c: 153:            RA1 = 1;
  2994  044F  1283               	bcf	3,5	;RP0=0, select bank0
  2995  0450  1303               	bcf	3,6	;RP1=0, select bank0
  2996  0451  1485               	bsf	5,1	;volatile
  2997  0452                     l1390:
  2998                           
  2999                           ;coffeemaker.c: 154:            _delay((unsigned long)((1500)*(1000000/4000000.0)));
  3000  0452  307C               	movlw	124
  3001  0453  00F0               	movwf	??_making
  3002  0454                     u1457:
  3003  0454  0BF0               	decfsz	??_making,f
  3004  0455  2C54               	goto	u1457
  3005  0456  2C57               	nop2
  3006  0457                     l1392:
  3007                           
  3008                           ;coffeemaker.c: 155:            RA1 = 0;
  3009  0457  1283               	bcf	3,5	;RP0=0, select bank0
  3010  0458  1303               	bcf	3,6	;RP1=0, select bank0
  3011  0459  1085               	bcf	5,1	;volatile
  3012                           
  3013                           ;coffeemaker.c: 156:            _delay((unsigned long)((18500)*(1000000/4000000.0)));
  3014  045A  3006               	movlw	6
  3015  045B  00F1               	movwf	??_making+1
  3016  045C  3000               	movlw	0
  3017  045D  00F0               	movwf	??_making
  3018  045E                     u1467:
  3019  045E  0BF0               	decfsz	??_making,f
  3020  045F  2C5E               	goto	u1467
  3021  0460  0BF1               	decfsz	??_making+1,f
  3022  0461  2C5E               	goto	u1467
  3023  0462  2C63               	nop2
  3024                           
  3025                           ;coffeemaker.c: 157:         }
  3026  0463  3001               	movlw	1
  3027  0464  07F6               	addwf	making@j,f
  3028  0465  1803               	skipnc
  3029  0466  0AF7               	incf	making@j+1,f
  3030  0467  3000               	movlw	0
  3031  0468  07F7               	addwf	making@j+1,f
  3032  0469  3000               	movlw	0
  3033  046A  0277               	subwf	making@j+1,w
  3034  046B  3032               	movlw	50
  3035  046C  1903               	skipnz
  3036  046D  0276               	subwf	making@j,w
  3037  046E  1C03               	skipc
  3038  046F  2C71               	goto	u721
  3039  0470  2C72               	goto	u720
  3040  0471                     u721:
  3041  0471  2C4F               	goto	l85
  3042  0472                     u720:
  3043  0472                     l86:
  3044                           
  3045                           ;coffeemaker.c: 158:         RD5=0;
  3046  0472  1283               	bcf	3,5	;RP0=0, select bank0
  3047  0473  1303               	bcf	3,6	;RP1=0, select bank0
  3048  0474  1288               	bcf	8,5	;volatile
  3049                           
  3050                           ;coffeemaker.c: 160:    }
  3051  0475  2CD9               	goto	l93
  3052  0476                     l1394:
  3053  0476  3033               	movlw	51
  3054  0477  0673               	xorwf	making@t,w
  3055  0478  1D03               	btfss	3,2
  3056  0479  2C7B               	goto	u731
  3057  047A  2C7C               	goto	u730
  3058  047B                     u731:
  3059  047B  2CD9               	goto	l93
  3060  047C                     u730:
  3061  047C                     l1396:
  3062                           
  3063                           ;coffeemaker.c: 162:    {;coffeemaker.c: 163:        RD6=1;
  3064  047C  1283               	bcf	3,5	;RP0=0, select bank0
  3065  047D  1303               	bcf	3,6	;RP1=0, select bank0
  3066  047E  1708               	bsf	8,6	;volatile
  3067  047F                     l1398:
  3068                           
  3069                           ;coffeemaker.c: 164:         for(i=0;i<50;i++)
  3070  047F  01F4               	clrf	making@i
  3071  0480  01F5               	clrf	making@i+1
  3072  0481                     l89:
  3073                           
  3074                           ;coffeemaker.c: 165:         {;coffeemaker.c: 166:            RD3 = 1;
  3075  0481  1283               	bcf	3,5	;RP0=0, select bank0
  3076  0482  1303               	bcf	3,6	;RP1=0, select bank0
  3077  0483  1588               	bsf	8,3	;volatile
  3078  0484                     l1404:
  3079                           
  3080                           ;coffeemaker.c: 167:           _delay((unsigned long)((800)*(1000000/4000000.0)));
  3081  0484  3042               	movlw	66
  3082  0485  00F0               	movwf	??_making
  3083  0486                     u1477:
  3084  0486  0BF0               	decfsz	??_making,f
  3085  0487  2C86               	goto	u1477
  3086  0488  0000               	nop
  3087  0489                     l1406:
  3088                           
  3089                           ;coffeemaker.c: 168:           RD3 = 0;
  3090  0489  1283               	bcf	3,5	;RP0=0, select bank0
  3091  048A  1303               	bcf	3,6	;RP1=0, select bank0
  3092  048B  1188               	bcf	8,3	;volatile
  3093                           
  3094                           ;coffeemaker.c: 169:           _delay((unsigned long)((19200)*(1000000/4000000.0)));
  3095  048C  3007               	movlw	7
  3096  048D  00F1               	movwf	??_making+1
  3097  048E  303A               	movlw	58
  3098  048F  00F0               	movwf	??_making
  3099  0490                     u1487:
  3100  0490  0BF0               	decfsz	??_making,f
  3101  0491  2C90               	goto	u1487
  3102  0492  0BF1               	decfsz	??_making+1,f
  3103  0493  2C90               	goto	u1487
  3104  0494  0000               	nop
  3105                           
  3106                           ;coffeemaker.c: 170:         }
  3107  0495  3001               	movlw	1
  3108  0496  07F4               	addwf	making@i,f
  3109  0497  1803               	skipnc
  3110  0498  0AF5               	incf	making@i+1,f
  3111  0499  3000               	movlw	0
  3112  049A  07F5               	addwf	making@i+1,f
  3113  049B  3000               	movlw	0
  3114  049C  0275               	subwf	making@i+1,w
  3115  049D  3032               	movlw	50
  3116  049E  1903               	skipnz
  3117  049F  0274               	subwf	making@i,w
  3118  04A0  1C03               	skipc
  3119  04A1  2CA3               	goto	u741
  3120  04A2  2CA4               	goto	u740
  3121  04A3                     u741:
  3122  04A3  2C81               	goto	l89
  3123  04A4                     u740:
  3124  04A4                     l1408:
  3125                           
  3126                           ;coffeemaker.c: 171:         _delay((unsigned long)((5000)*(1000000/4000.0)));
  3127  04A4  3007               	movlw	7
  3128  04A5  00F2               	movwf	??_making+2
  3129  04A6  3058               	movlw	88
  3130  04A7  00F1               	movwf	??_making+1
  3131  04A8  3059               	movlw	89
  3132  04A9  00F0               	movwf	??_making
  3133  04AA                     u1497:
  3134  04AA  0BF0               	decfsz	??_making,f
  3135  04AB  2CAA               	goto	u1497
  3136  04AC  0BF1               	decfsz	??_making+1,f
  3137  04AD  2CAA               	goto	u1497
  3138  04AE  0BF2               	decfsz	??_making+2,f
  3139  04AF  2CAA               	goto	u1497
  3140  04B0  2CB1               	nop2
  3141  04B1                     l1410:
  3142                           
  3143                           ;coffeemaker.c: 172:         for(j=0;j<50;j++)
  3144  04B1  01F6               	clrf	making@j
  3145  04B2  01F7               	clrf	making@j+1
  3146  04B3                     l91:
  3147                           
  3148                           ;coffeemaker.c: 173:         {;coffeemaker.c: 174:            RD3 = 1;
  3149  04B3  1283               	bcf	3,5	;RP0=0, select bank0
  3150  04B4  1303               	bcf	3,6	;RP1=0, select bank0
  3151  04B5  1588               	bsf	8,3	;volatile
  3152  04B6                     l1416:
  3153                           
  3154                           ;coffeemaker.c: 175:            _delay((unsigned long)((1500)*(1000000/4000000.0)));
  3155  04B6  307C               	movlw	124
  3156  04B7  00F0               	movwf	??_making
  3157  04B8                     u1507:
  3158  04B8  0BF0               	decfsz	??_making,f
  3159  04B9  2CB8               	goto	u1507
  3160  04BA  2CBB               	nop2
  3161  04BB                     l1418:
  3162                           
  3163                           ;coffeemaker.c: 176:            RD3 = 0;
  3164  04BB  1283               	bcf	3,5	;RP0=0, select bank0
  3165  04BC  1303               	bcf	3,6	;RP1=0, select bank0
  3166  04BD  1188               	bcf	8,3	;volatile
  3167                           
  3168                           ;coffeemaker.c: 177:            _delay((unsigned long)((18500)*(1000000/4000000.0)));
  3169  04BE  3006               	movlw	6
  3170  04BF  00F1               	movwf	??_making+1
  3171  04C0  3000               	movlw	0
  3172  04C1  00F0               	movwf	??_making
  3173  04C2                     u1517:
  3174  04C2  0BF0               	decfsz	??_making,f
  3175  04C3  2CC2               	goto	u1517
  3176  04C4  0BF1               	decfsz	??_making+1,f
  3177  04C5  2CC2               	goto	u1517
  3178  04C6  2CC7               	nop2
  3179                           
  3180                           ;coffeemaker.c: 178:         }
  3181  04C7  3001               	movlw	1
  3182  04C8  07F6               	addwf	making@j,f
  3183  04C9  1803               	skipnc
  3184  04CA  0AF7               	incf	making@j+1,f
  3185  04CB  3000               	movlw	0
  3186  04CC  07F7               	addwf	making@j+1,f
  3187  04CD  3000               	movlw	0
  3188  04CE  0277               	subwf	making@j+1,w
  3189  04CF  3032               	movlw	50
  3190  04D0  1903               	skipnz
  3191  04D1  0276               	subwf	making@j,w
  3192  04D2  1C03               	skipc
  3193  04D3  2CD5               	goto	u751
  3194  04D4  2CD6               	goto	u750
  3195  04D5                     u751:
  3196  04D5  2CB3               	goto	l91
  3197  04D6                     u750:
  3198  04D6                     l92:
  3199                           
  3200                           ;coffeemaker.c: 180:         RD6=0;
  3201  04D6  1283               	bcf	3,5	;RP0=0, select bank0
  3202  04D7  1303               	bcf	3,6	;RP1=0, select bank0
  3203  04D8  1308               	bcf	8,6	;volatile
  3204  04D9                     l93:
  3205  04D9  0008               	return
  3206  04DA                     __end_of_making:
  3207                           
  3208                           	psect	text4
  3209  0F1D                     __ptext4:	
  3210 ;; *************** function _keypad *****************
  3211 ;; Defined at:
  3212 ;;		line 187 in file "coffeemaker.c"
  3213 ;; Parameters:    Size  Location     Type
  3214 ;;		None
  3215 ;; Auto vars:     Size  Location     Type
  3216 ;;		None
  3217 ;; Return value:  Size  Location     Type
  3218 ;;                  1    wreg      unsigned char 
  3219 ;; Registers used:
  3220 ;;		wreg, status,2, status,0, pclath, cstack
  3221 ;; Tracked objects:
  3222 ;;		On entry : 0/0
  3223 ;;		On exit  : 0/0
  3224 ;;		Unchanged: 0/0
  3225 ;; Data sizes:     COMMON   BANK0   BANK1   BANK3   BANK2
  3226 ;;      Params:         0       0       0       0       0
  3227 ;;      Locals:         0       0       0       0       0
  3228 ;;      Temps:          0       0       0       0       0
  3229 ;;      Totals:         0       0       0       0       0
  3230 ;;Total ram usage:        0 bytes
  3231 ;; Hardware stack levels used: 1
  3232 ;; Hardware stack levels required when called: 1
  3233 ;; This function calls:
  3234 ;;		_store
  3235 ;; This function is called by:
  3236 ;;		_middle
  3237 ;;		_main
  3238 ;; This function uses a non-reentrant model
  3239 ;;
  3240                           
  3241                           
  3242                           ;psect for function _keypad
  3243  0F1D                     _keypad:
  3244  0F1D                     l96:	
  3245                           ;incstack = 0
  3246                           ; Regs used in _keypad: [wreg+status,2+status,0+pclath+cstack]
  3247                           ;coffeemaker.c: 189:     while(1)
  3248                           
  3249                           
  3250                           ;coffeemaker.c: 190:     {;coffeemaker.c: 191:       RB2=1;RB1=0;RB0=0;
  3251  0F1D  1283               	bcf	3,5	;RP0=0, select bank0
  3252  0F1E  1303               	bcf	3,6	;RP1=0, select bank0
  3253  0F1F  1506               	bsf	6,2	;volatile
  3254  0F20  1086               	bcf	6,1	;volatile
  3255  0F21  1006               	bcf	6,0	;volatile
  3256                           
  3257                           ;coffeemaker.c: 192:       if (RB4==1)
  3258  0F22  1E06               	btfss	6,4	;volatile
  3259  0F23  2F25               	goto	u761
  3260  0F24  2F26               	goto	u760
  3261  0F25                     u761:
  3262  0F25  2F34               	goto	l97
  3263  0F26                     u760:
  3264  0F26                     l1420:
  3265                           
  3266                           ;coffeemaker.c: 193:        {;coffeemaker.c: 194:          store('1');
  3267  0F26  3031               	movlw	49
  3268  0F27  120A  118A  20F1  120A  158A  	fcall	_store
  3269  0F2C                     l98:	
  3270                           ;coffeemaker.c: 195:          while(RB4==1);
  3271                           
  3272  0F2C  1283               	bcf	3,5	;RP0=0, select bank0
  3273  0F2D  1303               	bcf	3,6	;RP1=0, select bank0
  3274  0F2E  1A06               	btfsc	6,4	;volatile
  3275  0F2F  2F31               	goto	u771
  3276  0F30  2F32               	goto	u770
  3277  0F31                     u771:
  3278  0F31  2F2C               	goto	l98
  3279  0F32                     u770:
  3280  0F32                     l1422:
  3281                           
  3282                           ;coffeemaker.c: 196:          return '1';
  3283  0F32  3031               	movlw	49
  3284  0F33  2FFF               	goto	l101
  3285  0F34                     l97:	
  3286                           ;coffeemaker.c: 197:        }
  3287                           
  3288                           
  3289                           ;coffeemaker.c: 198:       if (RB5==1)
  3290  0F34  1E86               	btfss	6,5	;volatile
  3291  0F35  2F37               	goto	u781
  3292  0F36  2F38               	goto	u780
  3293  0F37                     u781:
  3294  0F37  2F46               	goto	l102
  3295  0F38                     u780:
  3296  0F38                     l1426:
  3297                           
  3298                           ;coffeemaker.c: 199:        {;coffeemaker.c: 200:          store('4');
  3299  0F38  3034               	movlw	52
  3300  0F39  120A  118A  20F1  120A  158A  	fcall	_store
  3301  0F3E                     l103:	
  3302                           ;coffeemaker.c: 201:          while(RB5==1);
  3303                           
  3304  0F3E  1283               	bcf	3,5	;RP0=0, select bank0
  3305  0F3F  1303               	bcf	3,6	;RP1=0, select bank0
  3306  0F40  1A86               	btfsc	6,5	;volatile
  3307  0F41  2F43               	goto	u791
  3308  0F42  2F44               	goto	u790
  3309  0F43                     u791:
  3310  0F43  2F3E               	goto	l103
  3311  0F44                     u790:
  3312  0F44                     l1428:
  3313                           
  3314                           ;coffeemaker.c: 202:          return '4';
  3315  0F44  3034               	movlw	52
  3316  0F45  2FFF               	goto	l101
  3317  0F46                     l102:	
  3318                           ;coffeemaker.c: 203:        }
  3319                           
  3320                           
  3321                           ;coffeemaker.c: 204:       if (RB6==1)
  3322  0F46  1F06               	btfss	6,6	;volatile
  3323  0F47  2F49               	goto	u801
  3324  0F48  2F4A               	goto	u800
  3325  0F49                     u801:
  3326  0F49  2F58               	goto	l106
  3327  0F4A                     u800:
  3328  0F4A                     l1432:
  3329                           
  3330                           ;coffeemaker.c: 205:        {;coffeemaker.c: 206:          store('7');
  3331  0F4A  3037               	movlw	55
  3332  0F4B  120A  118A  20F1  120A  158A  	fcall	_store
  3333  0F50                     l107:	
  3334                           ;coffeemaker.c: 207:          while(RB6==1);
  3335                           
  3336  0F50  1283               	bcf	3,5	;RP0=0, select bank0
  3337  0F51  1303               	bcf	3,6	;RP1=0, select bank0
  3338  0F52  1B06               	btfsc	6,6	;volatile
  3339  0F53  2F55               	goto	u811
  3340  0F54  2F56               	goto	u810
  3341  0F55                     u811:
  3342  0F55  2F50               	goto	l107
  3343  0F56                     u810:
  3344  0F56                     l1434:
  3345                           
  3346                           ;coffeemaker.c: 208:          return '7';
  3347  0F56  3037               	movlw	55
  3348  0F57  2FFF               	goto	l101
  3349  0F58                     l106:	
  3350                           ;coffeemaker.c: 209:        }
  3351                           
  3352                           
  3353                           ;coffeemaker.c: 210:        if (RB7==1)
  3354  0F58  1F86               	btfss	6,7	;volatile
  3355  0F59  2F5B               	goto	u821
  3356  0F5A  2F5C               	goto	u820
  3357  0F5B                     u821:
  3358  0F5B  2F6A               	goto	l110
  3359  0F5C                     u820:
  3360  0F5C                     l1438:
  3361                           
  3362                           ;coffeemaker.c: 211:        {;coffeemaker.c: 212:          store('*');
  3363  0F5C  302A               	movlw	42
  3364  0F5D  120A  118A  20F1  120A  158A  	fcall	_store
  3365  0F62                     l111:	
  3366                           ;coffeemaker.c: 213:          while(RB7==1);
  3367                           
  3368  0F62  1283               	bcf	3,5	;RP0=0, select bank0
  3369  0F63  1303               	bcf	3,6	;RP1=0, select bank0
  3370  0F64  1B86               	btfsc	6,7	;volatile
  3371  0F65  2F67               	goto	u831
  3372  0F66  2F68               	goto	u830
  3373  0F67                     u831:
  3374  0F67  2F62               	goto	l111
  3375  0F68                     u830:
  3376  0F68                     l1440:
  3377                           
  3378                           ;coffeemaker.c: 214:          return '*';
  3379  0F68  302A               	movlw	42
  3380  0F69  2FFF               	goto	l101
  3381  0F6A                     l110:	
  3382                           ;coffeemaker.c: 215:        }
  3383                           
  3384                           
  3385                           ;coffeemaker.c: 216:        RB2=0;RB1=1;RB0=0;
  3386  0F6A  1106               	bcf	6,2	;volatile
  3387  0F6B  1486               	bsf	6,1	;volatile
  3388  0F6C  1006               	bcf	6,0	;volatile
  3389                           
  3390                           ;coffeemaker.c: 217:        if (RB4==1)
  3391  0F6D  1E06               	btfss	6,4	;volatile
  3392  0F6E  2F70               	goto	u841
  3393  0F6F  2F71               	goto	u840
  3394  0F70                     u841:
  3395  0F70  2F7F               	goto	l114
  3396  0F71                     u840:
  3397  0F71                     l1444:
  3398                           
  3399                           ;coffeemaker.c: 218:        {;coffeemaker.c: 219:          store('2');
  3400  0F71  3032               	movlw	50
  3401  0F72  120A  118A  20F1  120A  158A  	fcall	_store
  3402  0F77                     l115:	
  3403                           ;coffeemaker.c: 220:          while(RB4==1);
  3404                           
  3405  0F77  1283               	bcf	3,5	;RP0=0, select bank0
  3406  0F78  1303               	bcf	3,6	;RP1=0, select bank0
  3407  0F79  1A06               	btfsc	6,4	;volatile
  3408  0F7A  2F7C               	goto	u851
  3409  0F7B  2F7D               	goto	u850
  3410  0F7C                     u851:
  3411  0F7C  2F77               	goto	l115
  3412  0F7D                     u850:
  3413  0F7D                     l1446:
  3414                           
  3415                           ;coffeemaker.c: 221:          return '2';
  3416  0F7D  3032               	movlw	50
  3417  0F7E  2FFF               	goto	l101
  3418  0F7F                     l114:	
  3419                           ;coffeemaker.c: 222:        }
  3420                           
  3421                           
  3422                           ;coffeemaker.c: 223:        if (RB5==1)
  3423  0F7F  1E86               	btfss	6,5	;volatile
  3424  0F80  2F82               	goto	u861
  3425  0F81  2F83               	goto	u860
  3426  0F82                     u861:
  3427  0F82  2F91               	goto	l118
  3428  0F83                     u860:
  3429  0F83                     l1450:
  3430                           
  3431                           ;coffeemaker.c: 224:        {;coffeemaker.c: 225:          store('5');
  3432  0F83  3035               	movlw	53
  3433  0F84  120A  118A  20F1  120A  158A  	fcall	_store
  3434  0F89                     l119:	
  3435                           ;coffeemaker.c: 226:          while(RB5==1);
  3436                           
  3437  0F89  1283               	bcf	3,5	;RP0=0, select bank0
  3438  0F8A  1303               	bcf	3,6	;RP1=0, select bank0
  3439  0F8B  1A86               	btfsc	6,5	;volatile
  3440  0F8C  2F8E               	goto	u871
  3441  0F8D  2F8F               	goto	u870
  3442  0F8E                     u871:
  3443  0F8E  2F89               	goto	l119
  3444  0F8F                     u870:
  3445  0F8F                     l1452:
  3446                           
  3447                           ;coffeemaker.c: 227:          return '5';
  3448  0F8F  3035               	movlw	53
  3449  0F90  2FFF               	goto	l101
  3450  0F91                     l118:	
  3451                           ;coffeemaker.c: 228:        }
  3452                           
  3453                           
  3454                           ;coffeemaker.c: 229:        if (RB6==1)
  3455  0F91  1F06               	btfss	6,6	;volatile
  3456  0F92  2F94               	goto	u881
  3457  0F93  2F95               	goto	u880
  3458  0F94                     u881:
  3459  0F94  2FA3               	goto	l122
  3460  0F95                     u880:
  3461  0F95                     l1456:
  3462                           
  3463                           ;coffeemaker.c: 230:        {;coffeemaker.c: 231:          store('8');
  3464  0F95  3038               	movlw	56
  3465  0F96  120A  118A  20F1  120A  158A  	fcall	_store
  3466  0F9B                     l123:	
  3467                           ;coffeemaker.c: 232:          while(RB6==1);
  3468                           
  3469  0F9B  1283               	bcf	3,5	;RP0=0, select bank0
  3470  0F9C  1303               	bcf	3,6	;RP1=0, select bank0
  3471  0F9D  1B06               	btfsc	6,6	;volatile
  3472  0F9E  2FA0               	goto	u891
  3473  0F9F  2FA1               	goto	u890
  3474  0FA0                     u891:
  3475  0FA0  2F9B               	goto	l123
  3476  0FA1                     u890:
  3477  0FA1                     l1458:
  3478                           
  3479                           ;coffeemaker.c: 233:          return '8';
  3480  0FA1  3038               	movlw	56
  3481  0FA2  2FFF               	goto	l101
  3482  0FA3                     l122:	
  3483                           ;coffeemaker.c: 234:        }
  3484                           
  3485                           
  3486                           ;coffeemaker.c: 235:        if (RB7==1)
  3487  0FA3  1F86               	btfss	6,7	;volatile
  3488  0FA4  2FA6               	goto	u901
  3489  0FA5  2FA7               	goto	u900
  3490  0FA6                     u901:
  3491  0FA6  2FB5               	goto	l126
  3492  0FA7                     u900:
  3493  0FA7                     l1462:
  3494                           
  3495                           ;coffeemaker.c: 236:        {;coffeemaker.c: 237:          store('0');
  3496  0FA7  3030               	movlw	48
  3497  0FA8  120A  118A  20F1  120A  158A  	fcall	_store
  3498  0FAD                     l127:	
  3499                           ;coffeemaker.c: 238:          while(RB7==1);
  3500                           
  3501  0FAD  1283               	bcf	3,5	;RP0=0, select bank0
  3502  0FAE  1303               	bcf	3,6	;RP1=0, select bank0
  3503  0FAF  1B86               	btfsc	6,7	;volatile
  3504  0FB0  2FB2               	goto	u911
  3505  0FB1  2FB3               	goto	u910
  3506  0FB2                     u911:
  3507  0FB2  2FAD               	goto	l127
  3508  0FB3                     u910:
  3509  0FB3                     l1464:
  3510                           
  3511                           ;coffeemaker.c: 239:          return '0';
  3512  0FB3  3030               	movlw	48
  3513  0FB4  2FFF               	goto	l101
  3514  0FB5                     l126:	
  3515                           ;coffeemaker.c: 240:        }
  3516                           
  3517                           
  3518                           ;coffeemaker.c: 241:        RB2=0;RB1=0;RB0=1;
  3519  0FB5  1106               	bcf	6,2	;volatile
  3520  0FB6  1086               	bcf	6,1	;volatile
  3521  0FB7  1406               	bsf	6,0	;volatile
  3522                           
  3523                           ;coffeemaker.c: 242:        if (RB4==1)
  3524  0FB8  1E06               	btfss	6,4	;volatile
  3525  0FB9  2FBB               	goto	u921
  3526  0FBA  2FBC               	goto	u920
  3527  0FBB                     u921:
  3528  0FBB  2FCA               	goto	l130
  3529  0FBC                     u920:
  3530  0FBC                     l1468:
  3531                           
  3532                           ;coffeemaker.c: 243:        {;coffeemaker.c: 244:          store('3');
  3533  0FBC  3033               	movlw	51
  3534  0FBD  120A  118A  20F1  120A  158A  	fcall	_store
  3535  0FC2                     l131:	
  3536                           ;coffeemaker.c: 245:          while(RB4==1);
  3537                           
  3538  0FC2  1283               	bcf	3,5	;RP0=0, select bank0
  3539  0FC3  1303               	bcf	3,6	;RP1=0, select bank0
  3540  0FC4  1A06               	btfsc	6,4	;volatile
  3541  0FC5  2FC7               	goto	u931
  3542  0FC6  2FC8               	goto	u930
  3543  0FC7                     u931:
  3544  0FC7  2FC2               	goto	l131
  3545  0FC8                     u930:
  3546  0FC8                     l1470:
  3547                           
  3548                           ;coffeemaker.c: 246:          return '3';
  3549  0FC8  3033               	movlw	51
  3550  0FC9  2FFF               	goto	l101
  3551  0FCA                     l130:	
  3552                           ;coffeemaker.c: 247:        }
  3553                           
  3554                           
  3555                           ;coffeemaker.c: 248:        if (RB5==1)
  3556  0FCA  1E86               	btfss	6,5	;volatile
  3557  0FCB  2FCD               	goto	u941
  3558  0FCC  2FCE               	goto	u940
  3559  0FCD                     u941:
  3560  0FCD  2FDC               	goto	l134
  3561  0FCE                     u940:
  3562  0FCE                     l1474:
  3563                           
  3564                           ;coffeemaker.c: 249:        {;coffeemaker.c: 250:          store('6');
  3565  0FCE  3036               	movlw	54
  3566  0FCF  120A  118A  20F1  120A  158A  	fcall	_store
  3567  0FD4                     l135:	
  3568                           ;coffeemaker.c: 251:          while(RB5==1);
  3569                           
  3570  0FD4  1283               	bcf	3,5	;RP0=0, select bank0
  3571  0FD5  1303               	bcf	3,6	;RP1=0, select bank0
  3572  0FD6  1A86               	btfsc	6,5	;volatile
  3573  0FD7  2FD9               	goto	u951
  3574  0FD8  2FDA               	goto	u950
  3575  0FD9                     u951:
  3576  0FD9  2FD4               	goto	l135
  3577  0FDA                     u950:
  3578  0FDA                     l1476:
  3579                           
  3580                           ;coffeemaker.c: 252:          return '6';
  3581  0FDA  3036               	movlw	54
  3582  0FDB  2FFF               	goto	l101
  3583  0FDC                     l134:	
  3584                           ;coffeemaker.c: 253:        }
  3585                           
  3586                           
  3587                           ;coffeemaker.c: 254:        if (RB6==1)
  3588  0FDC  1F06               	btfss	6,6	;volatile
  3589  0FDD  2FDF               	goto	u961
  3590  0FDE  2FE0               	goto	u960
  3591  0FDF                     u961:
  3592  0FDF  2FEE               	goto	l138
  3593  0FE0                     u960:
  3594  0FE0                     l1480:
  3595                           
  3596                           ;coffeemaker.c: 255:        {;coffeemaker.c: 256:          store('9');
  3597  0FE0  3039               	movlw	57
  3598  0FE1  120A  118A  20F1  120A  158A  	fcall	_store
  3599  0FE6                     l139:	
  3600                           ;coffeemaker.c: 257:          while(RB6==1);
  3601                           
  3602  0FE6  1283               	bcf	3,5	;RP0=0, select bank0
  3603  0FE7  1303               	bcf	3,6	;RP1=0, select bank0
  3604  0FE8  1B06               	btfsc	6,6	;volatile
  3605  0FE9  2FEB               	goto	u971
  3606  0FEA  2FEC               	goto	u970
  3607  0FEB                     u971:
  3608  0FEB  2FE6               	goto	l139
  3609  0FEC                     u970:
  3610  0FEC                     l1482:
  3611                           
  3612                           ;coffeemaker.c: 258:          return '9';
  3613  0FEC  3039               	movlw	57
  3614  0FED  2FFF               	goto	l101
  3615  0FEE                     l138:	
  3616                           ;coffeemaker.c: 259:        }
  3617                           
  3618                           
  3619                           ;coffeemaker.c: 260:        if (RB7==1)
  3620  0FEE  1F86               	btfss	6,7	;volatile
  3621  0FEF  2FF1               	goto	u981
  3622  0FF0  2FF2               	goto	u980
  3623  0FF1                     u981:
  3624  0FF1  2F1D               	goto	l96
  3625  0FF2                     u980:
  3626  0FF2                     l1486:
  3627                           
  3628                           ;coffeemaker.c: 261:        {;coffeemaker.c: 262:          store('#');
  3629  0FF2  3023               	movlw	35
  3630  0FF3  120A  118A  20F1  120A  158A  	fcall	_store
  3631  0FF8                     l143:	
  3632                           ;coffeemaker.c: 263:          while(RB7==1);
  3633                           
  3634  0FF8  1283               	bcf	3,5	;RP0=0, select bank0
  3635  0FF9  1303               	bcf	3,6	;RP1=0, select bank0
  3636  0FFA  1B86               	btfsc	6,7	;volatile
  3637  0FFB  2FFD               	goto	u991
  3638  0FFC  2FFE               	goto	u990
  3639  0FFD                     u991:
  3640  0FFD  2FF8               	goto	l143
  3641  0FFE                     u990:
  3642  0FFE                     l1488:
  3643                           
  3644                           ;coffeemaker.c: 264:          return '#';
  3645  0FFE  3023               	movlw	35
  3646  0FFF                     l101:
  3647  0FFF  0008               	return
  3648  1000                     __end_of_keypad:
  3649                           
  3650                           	psect	text5
  3651  00F1                     __ptext5:	
  3652 ;; *************** function _store *****************
  3653 ;; Defined at:
  3654 ;;		line 41 in file "coffeemaker.c"
  3655 ;; Parameters:    Size  Location     Type
  3656 ;;  data            1    wreg     unsigned char 
  3657 ;; Auto vars:     Size  Location     Type
  3658 ;;  data            1    0[COMMON] unsigned char 
  3659 ;; Return value:  Size  Location     Type
  3660 ;;                  1    wreg      void 
  3661 ;; Registers used:
  3662 ;;		wreg
  3663 ;; Tracked objects:
  3664 ;;		On entry : 0/0
  3665 ;;		On exit  : 0/0
  3666 ;;		Unchanged: 0/0
  3667 ;; Data sizes:     COMMON   BANK0   BANK1   BANK3   BANK2
  3668 ;;      Params:         0       0       0       0       0
  3669 ;;      Locals:         1       0       0       0       0
  3670 ;;      Temps:          0       0       0       0       0
  3671 ;;      Totals:         1       0       0       0       0
  3672 ;;Total ram usage:        1 bytes
  3673 ;; Hardware stack levels used: 1
  3674 ;; This function calls:
  3675 ;;		Nothing
  3676 ;; This function is called by:
  3677 ;;		_strin
  3678 ;;		_keypad
  3679 ;; This function uses a non-reentrant model
  3680 ;;
  3681                           
  3682                           
  3683                           ;psect for function _store
  3684  00F1                     _store:
  3685                           
  3686                           ;incstack = 0
  3687                           ; Regs used in _store: [wreg]
  3688                           ;store@data stored from wreg
  3689  00F1  00F0               	movwf	store@data
  3690  00F2                     l1266:
  3691                           
  3692                           ;coffeemaker.c: 41: void store(unsigned char data);coffeemaker.c: 42: {;coffeemaker.c: 4
      +                          3:     PORTC=data;
  3693  00F2  0870               	movf	store@data,w
  3694  00F3  1283               	bcf	3,5	;RP0=0, select bank0
  3695  00F4  1303               	bcf	3,6	;RP1=0, select bank0
  3696  00F5  0087               	movwf	7	;volatile
  3697  00F6                     l1268:
  3698                           
  3699                           ;coffeemaker.c: 44:     PORTDbits.RD0=1;
  3700  00F6  1408               	bsf	8,0	;volatile
  3701  00F7                     l1270:
  3702                           
  3703                           ;coffeemaker.c: 45:     PORTDbits.RD1=0;
  3704  00F7  1088               	bcf	8,1	;volatile
  3705  00F8                     l1272:
  3706                           
  3707                           ;coffeemaker.c: 46:     PORTDbits.RD2=1;
  3708  00F8  1508               	bsf	8,2	;volatile
  3709  00F9                     l1274:
  3710                           
  3711                           ;coffeemaker.c: 47:     PORTDbits.RD2=0;
  3712  00F9  1108               	bcf	8,2	;volatile
  3713  00FA                     l53:
  3714  00FA  0008               	return
  3715  00FB                     __end_of_store:
  3716                           
  3717                           	psect	text6
  3718  0E85                     __ptext6:	
  3719 ;; *************** function _compare *****************
  3720 ;; Defined at:
  3721 ;;		line 268 in file "coffeemaker.c"
  3722 ;; Parameters:    Size  Location     Type
  3723 ;;  str1            1    wreg     PTR unsigned char 
  3724 ;;		 -> main@arr3(8), main@arr2(40), middle@x(1), 
  3725 ;;  str2            2    4[COMMON] PTR unsigned char 
  3726 ;;		 -> STR_20(2), main@pass(6), STR_15(2), STR_10(2), 
  3727 ;;		 -> STR_5(2), 
  3728 ;;  len             2    6[COMMON] int 
  3729 ;; Auto vars:     Size  Location     Type
  3730 ;;  str1            1    0[BANK0 ] PTR unsigned char 
  3731 ;;		 -> main@arr3(8), main@arr2(40), middle@x(1), 
  3732 ;;  i               2    1[BANK0 ] int 
  3733 ;; Return value:  Size  Location     Type
  3734 ;;                  2    4[COMMON] int 
  3735 ;; Registers used:
  3736 ;;		wreg, fsr0l, fsr0h, status,2, status,0, btemp+1, pclath
  3737 ;; Tracked objects:
  3738 ;;		On entry : 0/0
  3739 ;;		On exit  : 0/0
  3740 ;;		Unchanged: 0/0
  3741 ;; Data sizes:     COMMON   BANK0   BANK1   BANK3   BANK2
  3742 ;;      Params:         4       0       0       0       0
  3743 ;;      Locals:         0       3       0       0       0
  3744 ;;      Temps:          5       0       0       0       0
  3745 ;;      Totals:         9       3       0       0       0
  3746 ;;Total ram usage:       12 bytes
  3747 ;; Hardware stack levels used: 2
  3748 ;; This function calls:
  3749 ;;		Nothing
  3750 ;; This function is called by:
  3751 ;;		_middle
  3752 ;;		_main
  3753 ;; This function uses a non-reentrant model
  3754 ;;
  3755                           
  3756                           
  3757                           ;psect for function _compare
  3758  0E85                     _compare:
  3759                           
  3760                           ;incstack = 0
  3761                           ; Regs used in _compare: [wreg-fsr0h+status,2+status,0+btemp+1+pclath]
  3762                           ;compare@str1 stored from wreg
  3763  0E85  1283               	bcf	3,5	;RP0=0, select bank0
  3764  0E86  1303               	bcf	3,6	;RP1=0, select bank0
  3765  0E87  00A0               	movwf	compare@str1
  3766  0E88                     l1492:
  3767                           
  3768                           ;coffeemaker.c: 268: int compare(char str1[],char str2[],int len);coffeemaker.c: 269: {;
      +                          coffeemaker.c: 270:     for (int i=0;i<len;i++)
  3769  0E88  01A1               	clrf	compare@i
  3770  0E89  01A2               	clrf	compare@i+1
  3771  0E8A  2EBC               	goto	l150
  3772  0E8B                     l1494:
  3773                           
  3774                           ;coffeemaker.c: 271:     {;coffeemaker.c: 272:         if(str1[i]!=str2[i])
  3775  0E8B  1283               	bcf	3,5	;RP0=0, select bank0
  3776  0E8C  1303               	bcf	3,6	;RP1=0, select bank0
  3777  0E8D  0821               	movf	compare@i,w
  3778  0E8E  0774               	addwf	compare@str2,w
  3779  0E8F  00F9               	movwf	??_compare+1
  3780  0E90  0875               	movf	compare@str2+1,w
  3781  0E91  00F8               	movwf	??_compare
  3782  0E92  1803               	skipnc
  3783  0E93  0AF8               	incf	??_compare,f
  3784  0E94  1FA1               	btfss	compare@i,7
  3785  0E95  2E97               	goto	u1000
  3786  0E96  03F8               	decf	??_compare,f
  3787  0E97                     u1000:
  3788  0E97  0878               	movf	??_compare,w
  3789  0E98  00FA               	movwf	??_compare+2
  3790  0E99  087A               	movf	??_compare+2,w
  3791  0E9A  1283               	bcf	3,5	;RP0=0, select bank0
  3792  0E9B  1303               	bcf	3,6	;RP1=0, select bank0
  3793  0E9C  00FF               	movwf	btemp+1
  3794  0E9D  0879               	movf	??_compare+1,w
  3795  0E9E  0084               	movwf	4
  3796  0E9F  120A  118A  2003  120A  158A  	fcall	stringtab
  3797  0EA4  00FB               	movwf	??_compare+3
  3798  0EA5  0821               	movf	compare@i,w
  3799  0EA6  0720               	addwf	compare@str1,w
  3800  0EA7  00FC               	movwf	??_compare+4
  3801  0EA8  087C               	movf	??_compare+4,w
  3802  0EA9  0084               	movwf	4
  3803  0EAA  1383               	bcf	3,7	;select IRP bank0
  3804  0EAB  0800               	movf	0,w
  3805  0EAC  067B               	xorwf	??_compare+3,w
  3806  0EAD  1903               	skipnz
  3807  0EAE  2EB0               	goto	u1011
  3808  0EAF  2EB1               	goto	u1010
  3809  0EB0                     u1011:
  3810  0EB0  2EB6               	goto	l1500
  3811  0EB1                     u1010:
  3812  0EB1                     l1496:
  3813                           
  3814                           ;coffeemaker.c: 273:         {;coffeemaker.c: 274:             return 1;
  3815  0EB1  3001               	movlw	1
  3816  0EB2  00F4               	movwf	?_compare
  3817  0EB3  3000               	movlw	0
  3818  0EB4  00F5               	movwf	?_compare+1
  3819  0EB5  2ECC               	goto	l153
  3820  0EB6                     l1500:
  3821                           
  3822                           ;coffeemaker.c: 276:     }
  3823  0EB6  3001               	movlw	1
  3824  0EB7  07A1               	addwf	compare@i,f
  3825  0EB8  1803               	skipnc
  3826  0EB9  0AA2               	incf	compare@i+1,f
  3827  0EBA  3000               	movlw	0
  3828  0EBB  07A2               	addwf	compare@i+1,f
  3829  0EBC                     l150:
  3830  0EBC  0822               	movf	compare@i+1,w
  3831  0EBD  3A80               	xorlw	128
  3832  0EBE  00F8               	movwf	??_compare
  3833  0EBF  0877               	movf	compare@len+1,w
  3834  0EC0  3A80               	xorlw	128
  3835  0EC1  0278               	subwf	??_compare,w
  3836  0EC2  1D03               	skipz
  3837  0EC3  2EC6               	goto	u1025
  3838  0EC4  0876               	movf	compare@len,w
  3839  0EC5  0221               	subwf	compare@i,w
  3840  0EC6                     u1025:
  3841  0EC6  1C03               	skipc
  3842  0EC7  2EC9               	goto	u1021
  3843  0EC8  2ECA               	goto	u1020
  3844  0EC9                     u1021:
  3845  0EC9  2E8B               	goto	l1494
  3846  0ECA                     u1020:
  3847  0ECA                     l1502:
  3848                           
  3849                           ;coffeemaker.c: 277:     return 0;
  3850  0ECA  01F4               	clrf	?_compare
  3851  0ECB  01F5               	clrf	?_compare+1
  3852  0ECC                     l153:
  3853  0ECC  0008               	return
  3854  0ECD                     __end_of_compare:
  3855                           
  3856                           	psect	text7
  3857  0E38                     __ptext7:	
  3858 ;; *************** function _init *****************
  3859 ;; Defined at:
  3860 ;;		line 74 in file "coffeemaker.c"
  3861 ;; Parameters:    Size  Location     Type
  3862 ;;		None
  3863 ;; Auto vars:     Size  Location     Type
  3864 ;;		None
  3865 ;; Return value:  Size  Location     Type
  3866 ;;                  1    wreg      void 
  3867 ;; Registers used:
  3868 ;;		wreg, status,2, status,0, pclath, cstack
  3869 ;; Tracked objects:
  3870 ;;		On entry : 0/0
  3871 ;;		On exit  : 0/0
  3872 ;;		Unchanged: 0/0
  3873 ;; Data sizes:     COMMON   BANK0   BANK1   BANK3   BANK2
  3874 ;;      Params:         0       0       0       0       0
  3875 ;;      Locals:         0       0       0       0       0
  3876 ;;      Temps:          0       0       0       0       0
  3877 ;;      Totals:         0       0       0       0       0
  3878 ;;Total ram usage:        0 bytes
  3879 ;; Hardware stack levels used: 1
  3880 ;; Hardware stack levels required when called: 1
  3881 ;; This function calls:
  3882 ;;		_instruct
  3883 ;; This function is called by:
  3884 ;;		_main
  3885 ;; This function uses a non-reentrant model
  3886 ;;
  3887                           
  3888                           
  3889                           ;psect for function _init
  3890  0E38                     _init:
  3891  0E38                     l1506:	
  3892                           ;incstack = 0
  3893                           ; Regs used in _init: [wreg+status,2+status,0+pclath+cstack]
  3894                           
  3895                           
  3896                           ;coffeemaker.c: 76:     instruct(0x38);
  3897  0E38  3038               	movlw	56
  3898  0E39  120A  158A  2606  120A  158A  	fcall	_instruct
  3899                           
  3900                           ;coffeemaker.c: 77:     instruct(0x06);
  3901  0E3E  3006               	movlw	6
  3902  0E3F  120A  158A  2606  120A  158A  	fcall	_instruct
  3903                           
  3904                           ;coffeemaker.c: 78:     instruct(0x0C);
  3905  0E44  300C               	movlw	12
  3906  0E45  120A  158A  2606  120A  158A  	fcall	_instruct
  3907                           
  3908                           ;coffeemaker.c: 79:     instruct(0x01);
  3909  0E4A  3001               	movlw	1
  3910  0E4B  120A  158A  2606  120A  158A  	fcall	_instruct
  3911  0E50                     l65:
  3912  0E50  0008               	return
  3913  0E51                     __end_of_init:
  3914                           
  3915                           	psect	text8
  3916  0E06                     __ptext8:	
  3917 ;; *************** function _instruct *****************
  3918 ;; Defined at:
  3919 ;;		line 52 in file "coffeemaker.c"
  3920 ;; Parameters:    Size  Location     Type
  3921 ;;  inst            1    wreg     unsigned char 
  3922 ;; Auto vars:     Size  Location     Type
  3923 ;;  inst            1    0[COMMON] unsigned char 
  3924 ;; Return value:  Size  Location     Type
  3925 ;;                  1    wreg      void 
  3926 ;; Registers used:
  3927 ;;		wreg
  3928 ;; Tracked objects:
  3929 ;;		On entry : 0/0
  3930 ;;		On exit  : 0/0
  3931 ;;		Unchanged: 0/0
  3932 ;; Data sizes:     COMMON   BANK0   BANK1   BANK3   BANK2
  3933 ;;      Params:         0       0       0       0       0
  3934 ;;      Locals:         1       0       0       0       0
  3935 ;;      Temps:          0       0       0       0       0
  3936 ;;      Totals:         1       0       0       0       0
  3937 ;;Total ram usage:        1 bytes
  3938 ;; Hardware stack levels used: 1
  3939 ;; This function calls:
  3940 ;;		Nothing
  3941 ;; This function is called by:
  3942 ;;		_init
  3943 ;;		_middle
  3944 ;;		_main
  3945 ;; This function uses a non-reentrant model
  3946 ;;
  3947                           
  3948                           
  3949                           ;psect for function _instruct
  3950  0E06                     _instruct:
  3951                           
  3952                           ;incstack = 0
  3953                           ; Regs used in _instruct: [wreg]
  3954                           ;instruct@inst stored from wreg
  3955  0E06  00F0               	movwf	instruct@inst
  3956  0E07                     l1276:
  3957                           
  3958                           ;coffeemaker.c: 52: void instruct(unsigned char inst);coffeemaker.c: 53: {;coffeemaker.c
      +                          : 54:     PORTC=inst;
  3959  0E07  0870               	movf	instruct@inst,w
  3960  0E08  1283               	bcf	3,5	;RP0=0, select bank0
  3961  0E09  1303               	bcf	3,6	;RP1=0, select bank0
  3962  0E0A  0087               	movwf	7	;volatile
  3963  0E0B                     l1278:
  3964                           
  3965                           ;coffeemaker.c: 55:     PORTDbits.RD0=0;
  3966  0E0B  1008               	bcf	8,0	;volatile
  3967  0E0C                     l1280:
  3968                           
  3969                           ;coffeemaker.c: 56:     PORTDbits.RD1=0;
  3970  0E0C  1088               	bcf	8,1	;volatile
  3971  0E0D                     l1282:
  3972                           
  3973                           ;coffeemaker.c: 57:     PORTDbits.RD2=1;
  3974  0E0D  1508               	bsf	8,2	;volatile
  3975  0E0E                     l1284:
  3976                           
  3977                           ;coffeemaker.c: 58:     PORTDbits.RD2=0;
  3978  0E0E  1108               	bcf	8,2	;volatile
  3979  0E0F                     l56:
  3980  0E0F  0008               	return
  3981  0E10                     __end_of_instruct:
  3982                           
  3983                           	psect	text9
  3984  0E23                     __ptext9:	
  3985 ;; *************** function ___bmul *****************
  3986 ;; Defined at:
  3987 ;;		line 4 in file "D:\mplab x\pic\sources\c90\common\Umul8.c"
  3988 ;; Parameters:    Size  Location     Type
  3989 ;;  multiplier      1    wreg     unsigned char 
  3990 ;;  multiplicand    1    0[COMMON] unsigned char 
  3991 ;; Auto vars:     Size  Location     Type
  3992 ;;  multiplier      1    3[COMMON] unsigned char 
  3993 ;;  product         1    2[COMMON] unsigned char 
  3994 ;; Return value:  Size  Location     Type
  3995 ;;                  1    wreg      unsigned char 
  3996 ;; Registers used:
  3997 ;;		wreg, status,2, status,0
  3998 ;; Tracked objects:
  3999 ;;		On entry : 0/0
  4000 ;;		On exit  : 0/0
  4001 ;;		Unchanged: 0/0
  4002 ;; Data sizes:     COMMON   BANK0   BANK1   BANK3   BANK2
  4003 ;;      Params:         1       0       0       0       0
  4004 ;;      Locals:         2       0       0       0       0
  4005 ;;      Temps:          1       0       0       0       0
  4006 ;;      Totals:         4       0       0       0       0
  4007 ;;Total ram usage:        4 bytes
  4008 ;; Hardware stack levels used: 1
  4009 ;; This function calls:
  4010 ;;		Nothing
  4011 ;; This function is called by:
  4012 ;;		_main
  4013 ;; This function uses a non-reentrant model
  4014 ;;
  4015                           
  4016                           
  4017                           ;psect for function ___bmul
  4018  0E23                     ___bmul:
  4019                           
  4020                           ;incstack = 0
  4021                           ; Regs used in ___bmul: [wreg+status,2+status,0]
  4022                           ;___bmul@multiplier stored from wreg
  4023  0E23  00F3               	movwf	___bmul@multiplier
  4024  0E24                     l1584:
  4025  0E24  01F2               	clrf	___bmul@product
  4026  0E25                     l1586:
  4027  0E25  1C73               	btfss	___bmul@multiplier,0
  4028  0E26  2E28               	goto	u1091
  4029  0E27  2E29               	goto	u1090
  4030  0E28                     u1091:
  4031  0E28  2E2D               	goto	l1590
  4032  0E29                     u1090:
  4033  0E29                     l1588:
  4034  0E29  0870               	movf	___bmul@multiplicand,w
  4035  0E2A  00F1               	movwf	??___bmul
  4036  0E2B  0871               	movf	??___bmul,w
  4037  0E2C  07F2               	addwf	___bmul@product,f
  4038  0E2D                     l1590:
  4039  0E2D  1003               	clrc
  4040  0E2E  0DF0               	rlf	___bmul@multiplicand,f
  4041  0E2F                     l1592:
  4042  0E2F  1003               	clrc
  4043  0E30  0CF3               	rrf	___bmul@multiplier,f
  4044  0E31  0873               	movf	___bmul@multiplier,w
  4045  0E32  1D03               	btfss	3,2
  4046  0E33  2E35               	goto	u1101
  4047  0E34  2E36               	goto	u1100
  4048  0E35                     u1101:
  4049  0E35  2E25               	goto	l1586
  4050  0E36                     u1100:
  4051  0E36                     l1594:
  4052  0E36  0872               	movf	___bmul@product,w
  4053  0E37                     l306:
  4054  0E37  0008               	return
  4055  0E38                     __end_of___bmul:
  4056  007E                     btemp	set	126	;btemp
  4057  007E                     wtemp0	set	126
  4058                           
  4059                           	psect	config
  4060                           
  4061                           ;Config register CONFIG @ 0x2007
  4062                           ;	Oscillator Selection bits
  4063                           ;	FOSC = HS, HS oscillator
  4064                           ;	Watchdog Timer Enable bit
  4065                           ;	WDTE = OFF, WDT disabled
  4066                           ;	Power-up Timer Enable bit
  4067                           ;	PWRTE = OFF, PWRT disabled
  4068                           ;	Brown-out Reset Enable bit
  4069                           ;	BOREN = OFF, BOR disabled
  4070                           ;	Low-Voltage (Single-Supply) In-Circuit Serial Programming Enable bit
  4071                           ;	LVP = ON, RB3/PGM pin has PGM function; low-voltage programming enabled
  4072                           ;	Data EEPROM Memory Code Protection bit
  4073                           ;	CPD = OFF, Data EEPROM code protection off
  4074                           ;	Flash Program Memory Write Enable bits
  4075                           ;	WRT = OFF, Write protection off; all program memory may be written to by EECON control
  4076                           ;	In-Circuit Debugger Mode bit
  4077                           ;	DEBUG = 0x1, unprogrammed default
  4078                           ;	Flash Program Memory Code Protection bit
  4079                           ;	CP = OFF, Code protection off
  4080  2007                     	org	8199
  4081  2007  3FBA               	dw	16314

Data Sizes:
    Strings     221
    Constant    0
    Data        134
    BSS         0
    Persistent  0
    Stack       0

Auto Spaces:
    Space          Size  Autos    Used
    COMMON           14     14      14
    BANK0            80     79      79
    BANK1            80     80      80
    BANK3            96      4      58
    BANK2            96      0      80

Pointer List with Targets:

    compare@str2	PTR unsigned char  size(2) Largest target is 6
		 -> STR_20(CODE[2]), main@pass(BANK0[6]), STR_15(CODE[2]), STR_10(CODE[2]), 
		 -> STR_5(CODE[2]), 

    compare@str1	PTR unsigned char  size(1) Largest target is 40
		 -> main@arr3(BANK0[8]), main@arr2(BANK0[40]), middle@x(BANK0[1]), 

    strin@stri	PTR unsigned char  size(2) Largest target is 80
		 -> STR_29(CODE[13]), STR_28(CODE[10]), STR_27(CODE[16]), STR_26(CODE[14]), 
		 -> STR_25(CODE[16]), STR_24(CODE[10]), STR_23(CODE[12]), STR_22(CODE[10]), 
		 -> STR_21(CODE[16]), STR_19(CODE[12]), STR_18(CODE[5]), STR_17(CODE[12]), 
		 -> STR_16(CODE[9]), main@arr(BANK1[80]), STR_14(CODE[13]), STR_13(CODE[16]), 
		 -> STR_12(CODE[14]), STR_11(CODE[16]), STR_9(CODE[13]), STR_8(CODE[16]), 
		 -> STR_7(CODE[13]), STR_6(CODE[16]), STR_4(CODE[13]), STR_3(CODE[16]), 
		 -> STR_2(CODE[16]), STR_1(CODE[16]), 


Critical Paths under _main in COMMON

    _main->_middle
    _middle->_compare
    _middle->_strin
    _strin->___bmul
    _keypad->_store
    _compare->___bmul
    _init->_instruct

Critical Paths under _main in BANK0

    _main->_middle
    _middle->_compare

Critical Paths under _main in BANK1

    None.

Critical Paths under _main in BANK3

    None.

Critical Paths under _main in BANK2

    None.

Call Graph Tables:

 ---------------------------------------------------------------------------------
 (Depth) Function   	        Calls       Base Space   Used Autos Params    Refs
 ---------------------------------------------------------------------------------
 (0) _main                                               154   154      0   12538
                                             12 BANK0     67    67      0
                                              0 BANK1     80    80      0
                                              0 BANK3      4     4      0
                             ___bmul
                            _compare
                               _init
                           _instruct
                             _keypad
                             _making
                             _middle
                              _strin
 ---------------------------------------------------------------------------------
 (1) _middle                                              10    10      0    5990
                                             13 COMMON     1     1      0
                                              3 BANK0      9     9      0
                            _compare
                           _instruct
                             _keypad
                             _making
                              _strin
 ---------------------------------------------------------------------------------
 (1) _strin                                                9     5      4    4064
                                              4 COMMON     9     5      4
                             ___bmul (ARG)
                              _store
 ---------------------------------------------------------------------------------
 (2) _making                                               8     8      0     526
                                              0 COMMON     8     8      0
 ---------------------------------------------------------------------------------
 (2) _keypad                                               0     0      0      22
                              _store
 ---------------------------------------------------------------------------------
 (2) _store                                                1     1      0      22
                                              0 COMMON     1     1      0
 ---------------------------------------------------------------------------------
 (3) _compare                                             12     8      4    1059
                                              4 COMMON     9     5      4
                                              0 BANK0      3     3      0
                             ___bmul (ARG)
 ---------------------------------------------------------------------------------
 (1) _init                                                 0     0      0      22
                           _instruct
 ---------------------------------------------------------------------------------
 (2) _instruct                                             1     1      0      22
                                              0 COMMON     1     1      0
 ---------------------------------------------------------------------------------
 (1) ___bmul                                               4     3      1     144
                                              0 COMMON     4     3      1
 ---------------------------------------------------------------------------------
 Estimated maximum stack depth 3
 ---------------------------------------------------------------------------------

 Call Graph Graphs:

 _main (ROOT)
   ___bmul
   _compare
     ___bmul (ARG)
   _init
     _instruct
   _instruct
   _keypad
     _store
   _making
   _middle
     _compare
     _instruct
     _keypad
     _making
     _strin
       ___bmul (ARG)
       _store (ARG)
   _strin

 Address spaces:
Name               Size   Autos  Total    Cost      Usage
BANK3               60      4      3A       9       60.4%
BITBANK3            60      0       0       8        0.0%
SFR3                 0      0       0       4        0.0%
BITSFR3              0      0       0       4        0.0%
BANK2               60      0      50      11       83.3%
BITBANK2            60      0       0      10        0.0%
SFR2                 0      0       0       5        0.0%
BITSFR2              0      0       0       5        0.0%
BANK1               50     50      50       7      100.0%
BITBANK1            50      0       0       6        0.0%
SFR1                 0      0       0       2        0.0%
BITSFR1              0      0       0       2        0.0%
BANK0               50     4F      4F       5       98.8%
BITBANK0            50      0       0       4        0.0%
SFR0                 0      0       0       1        0.0%
BITSFR0              0      0       0       1        0.0%
COMMON               E      E       E       1      100.0%
BITCOMMON            E      0       0       0        0.0%
CODE                 0      0       0       0        0.0%
DATA                 0      0     137      12        0.0%
ABS                  0      0     137       3        0.0%
NULL                 0      0       0       0        0.0%
STACK                0      0       0       2        0.0%
EEDATA             100      0       0       0        0.0%


Microchip Technology PIC Macro Assembler V2.32 build 20210201212658 
Symbol Table                                                                                   Sat May 08 13:27:58 2021

                      pc 0002           ___bmul@product 0072                       l53 00FA  
                     l62 0E84                       l71 032A                       l56 0E0F  
                     l80 040E                       l65 0E50                       l73 034F  
                     l91 04B3                       l83 041D                       l75 0381  
                     l92 04D6                       l76 03A4                       l85 044F  
                     l93 04D9                       l77 03B9                       l69 02F8  
                     l86 0472                       l79 03EB                       l96 0F1D  
                     l97 0F34                       l89 0481                       l98 0F2C  
                     fsr 0004                      l101 0FFF                      l110 0F6A  
                    l102 0F46                      l111 0F62                      l103 0F3E  
                    l130 0FCA                      l122 0FA3                      l114 0F7F  
                    l106 0F58                      l131 0FC2                      l123 0F9B  
                    l115 0F77                      l107 0F50                      l150 0EBC  
                    l134 0FDC                      l126 0FB5                      l118 0F91  
                    l143 0FF8                      l135 0FD4                      l127 0FAD  
                    l119 0F89                      l153 0ECC                      l306 0E37  
                    l138 0FEE                      l139 0FE6                      l165 02EB  
                    l181 05BB                      l159 02EA                      l188 07AD  
                    _RA0 0028                      _RA1 0029                      _RA2 002A  
                    _RB0 0030                      _RA3 002B                      _RB1 0031  
                    _RB2 0032                      _RA5 002D                      _RB4 0034  
                    _RB5 0035                      _RB6 0036                      _RD3 0043  
                    _RB7 0037                      _RD4 0044                      _RD5 0045  
                    _RD6 0046                      u610 0E5E                      u700 0418  
                    u620 0E84                      u701 0417                      u621 0E83  
                    u710 0440                      u630 02F3                      u711 043F  
                    u631 02F2                      u800 0F4A                      u720 0472  
                    u640 031B                      u801 0F49                      u721 0471  
                    u641 031A                      u625 0E80                      u810 0F56  
                    u730 047C                      u650 034D                      u811 0F55  
                    u731 047B                      u651 034C                      u900 0FA7  
                    u820 0F5C                      u740 04A4                      u660 0372  
                    u901 0FA6                      u821 0F5B                      u741 04A3  
                    u661 0371                      u910 0FB3                      u830 0F68  
                    u750 04D6                      u670 03A4                      u911 0FB2  
                    u831 0F67                      u751 04D5                      u671 03A3  
                    u920 0FBC                      u840 0F71                      u760 0F26  
                    u680 03DC                      u921 0FBB                      u841 0F70  
                    u761 0F25                      u681 03DB                      u930 0FC8  
                    u850 0F7D                      u770 0F32                      u690 040E  
                    u931 0FC7                      u851 0F7C                      u771 0F31  
                    u691 040D                      u940 0FCE                      u860 0F83  
                    u780 0F38                      u941 0FCD                      u861 0F82  
                    u781 0F37                      u950 0FDA                      u870 0F8F  
                    u790 0F44                      u951 0FD9                      u871 0F8E  
                    u791 0F43                      u960 0FE0                      u880 0F95  
                    u961 0FDF                      u881 0F94                      u970 0FEC  
                    u890 0FA1                      u971 0FEB                      u891 0FA0  
                    u980 0FF2                      u981 0FF1                      u990 0FFE  
                    u991 0FFD                      fsr0 0004                      indf 0000  
                   l1310 0328                     l1320 034D                     l1304 02FB  
                   l1410 04B1                     l1330 0372                     l1306 0300  
                   l1500 0EB6                     l1420 0F26                     l1404 0484  
                   l1340 0389                     l1332 037F                     l1316 032D  
                   l1308 031B                     l1502 0ECA                     l1270 00F7  
                   l1422 0F32                     l1406 0489                     l1342 03A7  
                   l1326 0352                     l1318 0332                     l1510 013E  
                   l1280 0E0C                     l1272 00F8                     l1440 0F68  
                   l1432 0F4A                     l1416 04B6                     l1408 04A4  
                   l1352 03BC                     l1344 03B4                     l1328 0357  
                   l1520 0178                     l1512 0144                     l1600 04DE  
                   l1282 0E0D                     l1506 0E38                     l1274 00F9  
                   l1266 00F2                     l1450 0F83                     l1434 0F56  
                   l1426 0F38                     l1418 04BB                     l1370 0418  
                   l1354 03C1                     l1346 03B7                     l1338 0384  
                   l1290 0E70                     l1530 01C2                     l1522 017E  
                   l1514 0150                     l1610 04EA                     l1602 04E0  
                   l1284 0E0E                     l1276 0E07                     l1268 00F6  
                   l1452 0F8F                     l1444 0F71                     l1428 0F44  
                   l1380 0425                     l1372 041B                     l1364 03EE  
                   l1356 03DC                     l1292 0E76                     l1540 01EC  
                   l1532 01C8                     l1524 0184                     l1516 015D  
                   l1508 0134                     l1700 069E                     l1620 04F1  
                   l1612 04ED                     l1604 04E1                     l1278 0E0B  
                   l1470 0FC8                     l1462 0FA7                     l1446 0F7D  
                   l1438 0F5C                     l1390 0452                     l1382 0440  
                   l1366 03F3                     l1358 03E9                     l1294 02ED  
                   l1286 0E51                     l1550 0226                     l1542 01FF  
                   l1526 0197                     l1518 0170                     l1534 01CD  
                   l1710 06EC                     l1702 06A4                     l1630 050B  
                   l1622 04F2                     l1614 04EE                     l1606 04E2  
                   l1480 0FE0                     l1464 0FB3                     l1456 0F95  
                   l1392 0457                     l1384 044D                     l1296 02F3  
                   l1368 0412                     l1288 0E54                     l1560 0262  
                   l1552 0233                     l1544 0207                     l1536 01D3  
                   l1528 01A4                     l1720 0728                     l1712 06F8  
                   l1704 06AC                     l1640 0558                     l1632 0521  
                   l1624 04F3                     l1616 04EF                     l1608 04E5  
                   l1482 0FEC                     l1474 0FCE                     l1458 0FA1  
                   l1378 0420                     l1394 0476                     l1298 02F6  
                   l1570 029C                     l1562 026E                     l1554 0251  
                   l1546 020D                     l1538 01DF                     l1730 0767  
                   l1722 0734                     l1714 0705                     l1706 06B2  
                   l1650 0592                     l1642 055E                     l1634 0537  
                   l1626 04F4                     l1618 04F0                     l1492 0E88  
                   l1476 0FDA                     l1468 0FBC                     l1396 047C  
                   l1580 02E6                     l1572 02A2                     l1564 027B  
                   l1556 0257                     l1548 0213                     l1740 07C6  
                   l1732 0773                     l1724 0741                     l1716 0718  
                   l1708 06BF                     l1660 05C4                     l1652 059C  
                   l1644 056B                     l1636 053D                     l1628 04F5  
                   l1590 0E2D                     l1494 0E8B                     l1486 0FF2  
                   l1398 047F                     l1574 02B5                     l1566 028E  
                   l1558 025C                     l1742 07D4                     l1734 0780  
                   l1726 0754                     l1718 0722                     l1670 05CC  
                   l1662 05C4                     l1654 05A4                     l1646 0575  
                   l1638 054A                     l1592 0E2F                     l1584 0E24  
                   l1496 0EB1                     l1488 0FFE                     l1576 02C2  
                   l1568 0296                     l1744 07DA                     l1728 0761  
                   l1736 07AD                     l1680 0613                     l1672 05EE  
                   l1664 05C8                     l1656 05AC                     l1648 057B  
                   l1594 0E36                     l1586 0E25                     l1578 02E0  
                   l1738 07B3                     l1690 065D                     l1682 0619  
                   l1674 05F4                     l1658 05BE                     l1588 0E29  
                   l1692 0665                     l1684 0642                     l1676 0600  
                   l1694 066B                     l1678 0606                     l1686 0648  
                   l1598 04DA                     l1696 0678                     l1688 0650  
                   l1698 0687                     STR_1 0013                     STR_2 0043  
                   STR_3 0023                     STR_4 008C                     STR_5 00EE  
                   STR_6 0013                     STR_7 0099                     STR_8 0023  
                   STR_9 008C                     u1000 0E97                     u1010 0EB1  
                   u1011 0EB0                     u1100 0E36                     u1020 0ECA  
                   u1101 0E35                     u1021 0EC9                     u1030 0144  
                   u1110 04FD                     u1031 0143                     u1040 01C8  
                   u1200 0767                     u1120 0513                     u1025 0EC6  
                   u1041 01C7                     u1201 0766                     u1050 01D3  
                   u1130 0529                     u1051 01D2                     u1060 0257  
                   u1140 05BB                     u1061 0256                     u1141 05BA  
                   u1070 0262                     u1150 05F4                     u1071 0261  
                   u1151 05F3                     u1080 02E6                     u1160 065D  
                   u1081 02E5                     u1161 065C                     u1145 05B7  
                   u1217 0552                     u1090 0E29                     u1170 0665  
                   u1091 0E28                     u1307 0339                     u1171 0664  
                   u1227 0571                     u1180 06AC                     u1317 0354  
                   u1181 06AB                     u1165 0659                     u1237 063C  
                   u1190 0728                     u1407 03F0                     u1327 035E  
                   u1191 0727                     u1247 0680                     u1417 03FA  
                   u1337 0378                     u1257 07CE                     u1507 04B8  
                   u1427 0422                     u1347 0386                     u1267 02FD  
                   u1517 04C2                     u1437 042C                     u1357 0390  
                   u1277 0307                     u1447 0446                     u1367 03AD  
                   u1287 0321                     u1457 0454                     u1377 03BE  
                   u1297 032F                     u1467 045E                     u1387 03C8  
                   u1477 0486                     u1397 03E2                     u1487 0490  
                   u1497 04AA              compare@str1 0020              compare@str2 0074  
                   _main 04DA                     _init 0E38                     btemp 007E  
                   start 0000        ___bmul@multiplier 0073                    ?_main 0070  
                  ?_init 0070                    STR_10 00EE                    STR_11 0013  
                  STR_20 00EC                    STR_12 0063                    STR_13 0023  
                  STR_21 0033                    STR_14 008C                    STR_22 00D4  
                  STR_15 00EE                    STR_23 00A6                    STR_16 00DE  
                  STR_24 00CA                    STR_17 00BE                    STR_25 0053  
                  STR_18 00E7                    STR_26 0071                    STR_27 0033  
                  STR_19 00B2                    STR_28 00D4                    STR_29 007F  
                  _PORTC 0007                    _TRISA 0085                    _TRISB 0086  
                  _TRISC 0087                    _TRISD 0088                    _TRISE 0089  
        __end_of_compare 0ECD                    main@f 0068                    main@i 006C  
                  main@j 01C6                    main@k 006E                    _store 00F1  
                  _strin 0E51                    pclath 000A                    status 0003  
                  wtemp0 007E          __initialization 07E1             __end_of_main 07E1  
           __end_of_init 0E51                   ??_main 002C              middle@d_135 0027  
            middle@d_129 0025                   ??_init 0071                   ?_store 0070  
                 ?_strin 0074                   ___bmul 0E23                   _making 02EC  
                 _middle 0131                   _keypad 0F1D                ??_compare 0078  
       __end_of_instruct 0E10                   strin@i 007B                   strin@n 0076  
__end_of__initialization 07FC      ___bmul@multiplicand 0070           __pcstackCOMMON 0070  
           __pidataBANK2 0ECD             __pidataBANK3 00FB            __end_of_store 00FB  
          __end_of_strin 0E85                  ??_store 0070                  ??_strin 0078  
             __pmaintext 04DA                  ?___bmul 0070                  ?_making 0070  
                ?_middle 0070                  ?_keypad 0070               __stringtab 0003  
              ?_instruct 0070          __size_of___bmul 0015          __size_of_making 01EE  
        __size_of_middle 01BB          __size_of_keypad 00E3                  __ptext1 0131  
                __ptext2 0E51                  __ptext3 02EC                  __ptext4 0F1D  
                __ptext5 00F1                  __ptext6 0E85                  __ptext7 0E38  
                __ptext8 0E06                  __ptext9 0E23                  _compare 0E85  
                main@arr 00A0                  main@var 01C8     end_of_initialization 07FC  
                making@i 0074                  making@j 0076                  making@t 0073  
                middle@d 0023                  middle@k 002B                  middle@x 002A  
             ??_instruct 0070                _PORTDbits 0008                _PORTEbits 0009  
             compare@len 0076           __end_of___bmul 0E38           __end_of_making 04DA  
         __end_of_middle 02EC           __end_of_keypad 1000      start_initialization 07E1  
               ??___bmul 0071               init_fetch0 0E10              __pdataBANK2 0110  
            __pdataBANK3 0190                 ??_making 0070                 ??_middle 007D  
               ??_keypad 0071                ___latbits 0002            __pcstackBANK0 0020  
          __pcstackBANK1 00A0            __pcstackBANK3 01C6        __size_of_instruct 000A  
              __pstrings 0003                 ?_compare 0074             instruct@inst 0070  
         __size_of_store 000A           __size_of_strin 0034                main@F1022 0190  
              main@F1031 01C0                main@F1026 01B8                main@F1018 0110  
            __stringbase 0012                main@value 0066                middle@str 0029  
     __end_of__stringtab 0013         __size_of_compare 0048            __size_of_main 0307  
          __size_of_init 0019                 _instruct 0E06                 main@arr2 0030  
               main@arr3 005E                 main@flag 006A                 main@pass 0058  
               compare@i 0021                 init_ram0 0E14                store@data 0070  
              strin@stri 0074                stringcode 000D                 stringdir 000D  
               stringtab 0003  
